Trying to open 'bfs-eko18.exe'..
FileFormat: raw, Arch: Ia64
Using the Nasm syntax..

Wait a few seconds, rp++ is looking for gadgets..
in .raw
2512 found.

A total of 2512 gadgets found.
0x00001ee2: adc al, 0x24 ; mov r11, qword [rsp+0x08] ; add rsp, 0x10 ; ret  ;  (1 found)
0x000035ce: adc al, 0x48 ; add esp, 0x28 ; ret  ;  (1 found)
0x00007644: adc byte [r11+0x48000863], al ; mov dword [rbx], eax ; add rsp, 0x20 ; pop rbx ; ret  ;  (1 found)
0x000015f9: adc byte [rax+rax*8+0x74110488], al ; adc cl, byte [rax-0x01] ; retn 0xE484 ;  (1 found)
0x00001479: adc byte [rax+rax*8+0x74110488], al ; and byte [rax-0x01], cl ; retn 0xFF49 ;  (1 found)
0x00001436: adc byte [rax+rax*8+0x74110488], al ; movsxd ecx, dword [rax-0x01] ; retn 0xFF49 ;  (1 found)
0x000015e2: adc byte [rax+rax*8+0x74110488], al ; sub dword [rax-0x01], ecx ; retn 0xE484 ;  (1 found)
0x000017df: adc byte [rax-0x01], cl ; retn 0xFF49 ;  (1 found)
0x00001e5d: adc byte [rax-0x7D], cl ; rol dword [rax+0x48], 0x0F ; ret  ;  (1 found)
0x00003f61: adc byte [rax], al ; add byte [rax+0x3B], cl ; retn 0x0F48 ;  (1 found)
0x000026df: adc byte [rax], al ; add rsp, 0x20 ; pop rbx ; ret  ;  (1 found)
0x00007645: adc byte [rbx+0x48000863], al ; mov dword [rbx], eax ; add rsp, 0x20 ; pop rbx ; ret  ;  (1 found)
0x000069f5: adc byte [rbx+rcx*4-0x33], al ; mov r8, r14 ; mov rdx, r13 ; mov rcx, rbx ; call rax ;  (1 found)
0x00004199: adc byte [rbx-0x0E8DE908], al ; xor eax, eax ; ret  ;  (1 found)
0x000077db: adc ch, al ; ret  ;  (1 found)
0x00001600: adc cl, byte [rax-0x01] ; retn 0xE484 ;  (1 found)
0x000013c5: adc dh, byte [rdx] ; ror byte [rax-0x74B6EEFC], 0xFFFFFFC3 ; ret  ;  (1 found)
0x00001e53: adc dword [rax+0x0F], ecx ; ret  ;  (1 found)
0x000013b2: adc dword [rax+rax*8-0x00B7EB8C], eax ; retn 0xFF49 ;  (1 found)
0x0000156f: adc dword [rax+rax*8-0x00B7F58C], eax ; retn 0xC2F6 ;  (1 found)
0x0000148f: adc dword [rax-0x01], ecx ; retn 0xFF49 ;  (1 found)
0x00001848: adc dword [rax-0x01], ecx ; shr ebx, 0xFFFFFFF3 ; mov rax, r11 ; ret  ;  (1 found)
0x00001218: adc dword [rax-0x3F], ecx ; rcl dword [rax], 0x66 ; test ecx, 0x0275FFFF ; rep ret  ;  (1 found)
0x000013d3: adc dword [rax-0x7D], ecx ; retn 0x4808 ;  (1 found)
0x00001585: adc dword [rax-0x7D], ecx ; retn 0x4808 ;  (1 found)
0x00001723: adc dword [rax-0x7D], ecx ; retn 0x4808 ;  (1 found)
0x000013ca: adc dword [rcx-0x75], ecx ; ret  ;  (1 found)
0x000014a0: adc dword [rcx-0x75], ecx ; ret  ;  (1 found)
0x0000356f: adc dword [rdi+0x06], esi ; mov eax, 0x0000000D ; ret  ;  (1 found)
0x00001706: adc dword [rdi], ecx ; test bl, ah ; add byte [rax], al ; add byte [rax-0x01], cl ; retn 0xFF49 ;  (1 found)
0x00001765: adc dword [rdi], ecx ; test byte [rax+rax-0x00B80000], al ; retn 0xFF49 ;  (1 found)
0x00008dea: adc eax, 0x000006C1 ; nop  ; add rsp, 0x20 ; pop rbp ; ret  ;  (1 found)
0x00008bb0: adc eax, 0x00000A5B ; add rsp, 0x28 ; ret  ;  (1 found)
0x00008b86: adc eax, 0x00000A8D ; mov qword [0x000000000000DA70], rax ; add rsp, 0x48 ; ret  ;  (1 found)
0x00005017: adc eax, 0x0000453C ; mov eax, 0x00000001 ; add rsp, 0x28 ; ret  ;  (1 found)
0x00004634: adc eax, 0x00004E3F ; xor eax, eax ; add rsp, 0x28 ; ret  ;  (1 found)
0x0000389c: adc eax, 0x00005C17 ; mov qword [0x000000000000E2E0], rax ; add rsp, 0x28 ; ret  ;  (1 found)
0x00002f35: adc eax, 0x00006516 ; lea rdx, qword [rbp-0x80] ; mov rcx, rbx ; call rax ;  (1 found)
0x00002f15: adc eax, 0x00006536 ; lea rdx, qword [rbp-0x80] ; mov rcx, rbx ; call rax ;  (1 found)
0x000021b9: adc eax, 0x000072A2 ; add rsp, 0x0000000000000088 ; ret  ;  (1 found)
0x00000b1f: adc eax, 0x000088EC ; add rsp, 0x48 ; ret  ;  (1 found)
0x0000db38: adc eax, 0x5000006D ; retn 0x0000 ;  (1 found)
0x0000af34: adc eax, 0xC8D01132 ; sub eax, 0x00010000 ; add byte [rax], al ; ret  ;  (1 found)
0x000017d8: adc eax, dword [rsp+0x74112488] ; adc byte [rax-0x01], cl ; retn 0xFF49 ;  (1 found)
0x00001488: adc eax, dword [rsp+0x74112488] ; adc dword [rax-0x01], ecx ; retn 0xFF49 ;  (1 found)
0x0000af36: adc eax, edx ; enter 0x002D, 0x00 ; add dword [rax], eax ; add byte [rax], al ; ret  ;  (1 found)
0x00006b16: adc ecx, dword [rcx-0x7D] ; retn 0x6602 ;  (1 found)
0x000043a1: adc edi, edi ; retn 0xFF49 ;  (1 found)
0x0000dc07: add ah, bl ; retn 0x0000 ;  (1 found)
0x0000dcc3: add ah, cl ; nop  ; add byte [rax], al ; clc  ; ret  ;  (1 found)
0x000013c9: add al, 0x11 ; mov rax, r11 ; ret  ;  (1 found)
0x0000149f: add al, 0x11 ; mov rax, r11 ; ret  ;  (1 found)
0x000047e8: add al, 0x41 ; call rax ;  (1 found)
0x000047e9: add al, 0x41 ; call rax ;  (1 found)
0x000035aa: add al, 0x48 ; add eax, 0x10 ; add rsp, 0x28 ; ret  ;  (1 found)
0x000035ca: add al, 0x48 ; add eax, 0x14 ; add rsp, 0x28 ; ret  ;  (1 found)
0x00001866: add al, 0x48 ; mov eax, ecx ; ret  ;  (1 found)
0x00008c70: add al, 0x84 ; div byte [rbp-0x75] ; xor eax, eax ; ret  ;  (1 found)
0x000012ec: add al, 0x84 ; div byte [rbp-0x78] ; xor rax, rax ; ret  ;  (1 found)
0x00005b18: add al, 0x8B ; ret  ;  (1 found)
0x0000dbef: add al, ah ; mov ebp, 0x78DC0000 ; add byte [rax], al ; mov edi, 0xB0000079 ; retn 0x0000 ;  (1 found)
0x0000dca3: add al, al ; ret  ;  (1 found)
0x0000dc8f: add al, bh ; mov dword [rax], eax ; add byte [rsi-0x4FFFFF76], cl ; ret  ;  (1 found)
0x0000da93: add al, bh ; ret  ;  (1 found)
0x0000dcc7: add al, bh ; ret  ;  (1 found)
0x00001701: add al, byte [rax+rax*8+0x0F110488] ; test bl, ah ; add byte [rax], al ; add byte [rax-0x01], cl ; retn 0xFF49 ;  (1 found)
0x000023e7: add al, byte [rax] ; add bl, ch ; add eax, 0x4C0FC33B ; ret  ;  (1 found)
0x000047ba: add al, byte [rax] ; ror byte [rbx+0x008EBAC7], 0x00000000 ; add byte [rdi], cl ; retn 0x8389 ;  (1 found)
0x00008e22: add al, ch ; add byte [rcx+0x4890FFFF], ch ; add esp, 0x20 ; pop rbp ; ret  ;  (1 found)
0x00008f20: add al, ch ; add ch, byte [rax+0x4890FFFF] ; add esp, 0x20 ; pop rbp ; ret  ;  (1 found)
0x00008eea: add al, ch ; cmp byte [rax+0x4890FFFF], ch ; add esp, 0x20 ; pop rbp ; ret  ;  (1 found)
0x000086e9: add al, ch ; cmp eax, 0x48FFFFAE ; or eax, 0xFFFFFFFF ; add rsp, 0x28 ; ret  ;  (1 found)
0x0000241b: add al, ch ; ret  ;  (1 found)
0x0000379b: add al, ch ; ret  ;  (1 found)
0x000077cb: add al, ch ; ret  ;  (1 found)
0x0000dcaf: add al, ch ; ret  ;  (1 found)
0x00008f05: add al, ch ; sbb eax, 0x90FFFFA8 ; add rsp, 0x20 ; pop rbp ; ret  ;  (1 found)
0x00005a9d: add al, ch ; std  ; retn 0xFFFF ;  (1 found)
0x00006445: add al, ch ; sub eax, 0x48FFFFFE ; add esp, 0x38 ; ret  ;  (1 found)
0x00008d89: add al, ch ; sub eax, 0x90FFFF98 ; add rsp, 0x20 ; pop rbp ; ret  ;  (1 found)
0x00005f8f: add al, dh ; add dword [rax+0x00000160], r9d ; mov rax, rcx ; ret  ;  (1 found)
0x00005eef: add al, dh ; inc dword [rax+0x00000160] ; ret  ;  (1 found)
0x0000da8b: add al, dh ; pop rsi ; add byte [rax], al ; sub eax, 0xF800005F ; ret  ;  (1 found)
0x00000b60: add bh, al ; and al, 0x20 ; push rax ; ret  ;  (1 found)
0x00002f33: add bh, bh ; adc eax, 0x00006516 ; lea rdx, qword [rbp-0x80] ; mov rcx, rbx ; call rax ;  (1 found)
0x00002f13: add bh, bh ; adc eax, 0x00006536 ; lea rdx, qword [rbp-0x80] ; mov rcx, rbx ; call rax ;  (1 found)
0x000053b8: add bh, bh ; ret  ;  (1 found)
0x000053b9: add bh, bh ; ret  ;  (1 found)
0x00003a8f: add bh, bh ; retn 0x5489 ;  (1 found)
0x00005da2: add bh, bh ; retn 0xE1EB ;  (1 found)
0x00005d81: add bh, bh ; retn 0xE2EB ;  (1 found)
0x0000586e: add bh, bh ; retn 0xFF48 ;  (1 found)
0x000019f4: add bh, bh ; ror byte [rax-0x7D], 1  ; ret  ;  (1 found)
0x00001ab5: add bh, bh ; ror byte [rax-0x7D], 1  ; ret  ;  (1 found)
0x00004035: add bh, bh ; ror byte [rax-0x7D], 1  ; ret  ;  (1 found)
0x0000406d: add bh, bh ; ror byte [rax-0x7D], 1  ; ret  ;  (1 found)
0x00001a2e: add bh, bh ; ror dword [rax-0x7D], 1  ; ret  ;  (1 found)
0x00003b1a: add bl, al ; mov qword [0x000000000000E318], rcx ; ret  ;  (1 found)
0x00003b22: add bl, al ; mov qword [0x000000000000E320], rcx ; ret  ;  (1 found)
0x000035a8: add bl, ch ; add al, 0x48 ; add eax, 0x10 ; add rsp, 0x28 ; ret  ;  (1 found)
0x000035c8: add bl, ch ; add al, 0x48 ; add eax, 0x14 ; add rsp, 0x28 ; ret  ;  (1 found)
0x000023e9: add bl, ch ; add eax, 0x4C0FC33B ; ret  ;  (1 found)
0x00006bfc: add bl, ch ; retn 0xC033 ;  (1 found)
0x0000db37: add byte [0x000000005000DBAA], dl ; retn 0x0000 ;  (1 found)
0x0000af33: add byte [0xFFFFFFFFC8D0C06B], dl ; sub eax, 0x00010000 ; add byte [rax], al ; ret  ;  (1 found)
0x0000da8f: add byte [0xFFFFFFFFF800DAF4], ch ; ret  ;  (1 found)
0x00004ac5: add byte [r8-0x01], r9L ; ret  ;  (1 found)
0x00005019: add byte [r8], r8L ; mov eax, 0x00000001 ; add rsp, 0x28 ; ret  ;  (1 found)
0x00004ac1: add byte [r9-0x01], r8L ; add byte [r8-0x01], r9L ; ret  ;  (1 found)
0x0000501b: add byte [rax+0x00000001], bh ; add rsp, 0x28 ; ret  ;  (1 found)
0x00001e4f: add byte [rax+0x0F], cl ; ret  ;  (1 found)
0x00008dee: add byte [rax+0x20C48348], dl ; pop rbp ; ret  ;  (1 found)
0x00003f63: add byte [rax+0x3B], cl ; retn 0x0F48 ;  (1 found)
0x00001760: add byte [rax+rax*8+0x0F110488], al ; test byte [rax+rax-0x00B80000], al ; retn 0xFF49 ;  (1 found)
0x00004ac6: add byte [rax-0x01], cl ; ret  ;  (1 found)
0x00006f98: add byte [rax-0x01], cl ; ret  ;  (1 found)
0x00006fe3: add byte [rax-0x01], cl ; ret  ;  (1 found)
0x0000141b: add byte [rax-0x01], cl ; retn 0xFF49 ;  (1 found)
0x0000170c: add byte [rax-0x01], cl ; retn 0xFF49 ;  (1 found)
0x0000176b: add byte [rax-0x01], cl ; retn 0xFF49 ;  (1 found)
0x0000dc8b: add byte [rax-0x07FFFF3D], cl ; mov dword [rax], eax ; add byte [rsi-0x4FFFFF76], cl ; ret  ;  (1 found)
0x0000dc9b: add byte [rax-0x11FFFF76], dl ; mov eax, dword [rax] ; add al, al ; ret  ;  (1 found)
0x0000db2f: add byte [rax-0x63FFFF42], cl ; imul eax, dword [rax], 0x00 ; adc eax, 0x5000006D ; retn 0x0000 ;  (1 found)
0x00002f19: add byte [rax-0x73], cl ; push rbp ; or byte [rax-0x75], 0xFFFFFFCB ; call rax ;  (1 found)
0x00002f39: add byte [rax-0x73], cl ; push rbp ; or byte [rax-0x75], 0xFFFFFFCB ; call rax ;  (1 found)
0x000046f1: add byte [rax-0x75], cl ; and dword [rax+0x48000000], 0xFFFFFF83 ; retn 0x4C10 ;  (1 found)
0x00003cc1: add byte [rax-0x75], cl ; ret  ;  (1 found)
0x00006d8b: add byte [rax-0x75], cl ; ret  ;  (1 found)
0x000086b7: add byte [rax-0x75], cl ; retn 0xE283 ;  (1 found)
0x000087a9: add byte [rax-0x75], cl ; retn 0xE283 ;  (1 found)
0x00008b8a: add byte [rax-0x77], cl ; add eax, 0x00004EDE ; add rsp, 0x48 ; ret  ;  (1 found)
0x000038a0: add byte [rax-0x77], cl ; add eax, 0x0000AA38 ; add rsp, 0x28 ; ret  ;  (1 found)
0x000040a2: add byte [rax-0x77], cl ; add ecx, dword [rax-0x7D] ; ret  ;  (1 found)
0x000038b6: add byte [rax-0x77], cl ; or eax, 0x0000AA32 ; mov qword [0x000000000000E2F8], rcx ; mov qword [0x000000000000E300], rcx ; ret  ;  (1 found)
0x000038bd: add byte [rax-0x77], cl ; or eax, 0x0000AA33 ; mov qword [0x000000000000E300], rcx ; ret  ;  (1 found)
0x000038c4: add byte [rax-0x77], cl ; or eax, 0x0000AA34 ; ret  ;  (1 found)
0x00001951: add byte [rax-0x7B], cl ; sal byte [rsp+rax-0x75], 0xFFFFFFCB ; call rax ;  (1 found)
0x00003a89: add byte [rax-0x7D], cl ; enter 0x0008, 0xFF ; retn 0x5489 ;  (1 found)
0x000036e4: add byte [rax-0x7D], cl ; ret  ;  (1 found)
0x00003708: add byte [rax-0x7D], cl ; ret  ;  (1 found)
0x00007d41: add byte [rax-0x7D], cl ; ret  ;  (1 found)
0x00007f60: add byte [rax-0x7D], cl ; ret  ;  (1 found)
0x00004d8a: add byte [rax-0x7D], cl ; retn 0x4858 ;  (1 found)
0x000046f8: add byte [rax-0x7D], cl ; retn 0x4C10 ;  (1 found)
0x0000dc0b: add byte [rax], ah ; add dword [rax], 0x0081FF00 ; add byte [rax], al ; ret  ;  (1 found)
0x0000db23: add byte [rax], ah ; retn 0x0000 ;  (1 found)
0x0000db36: add byte [rax], al ; adc eax, 0x5000006D ; retn 0x0000 ;  (1 found)
0x00003799: add byte [rax], al ; add al, ch ; ret  ;  (1 found)
0x000077c9: add byte [rax], al ; add al, ch ; ret  ;  (1 found)
0x00000b5e: add byte [rax], al ; add bh, al ; and al, 0x20 ; push rax ; ret  ;  (1 found)
0x0000586c: add byte [rax], al ; add bh, bh ; retn 0xFF48 ;  (1 found)
0x00006bfa: add byte [rax], al ; add bl, ch ; retn 0xC033 ;  (1 found)
0x0000175e: add byte [rax], al ; add byte [rax+rax*8+0x0F110488], al ; test byte [rax+rax-0x00B80000], al ; retn 0xFF49 ;  (1 found)
0x00006fe1: add byte [rax], al ; add byte [rax-0x01], cl ; ret  ;  (1 found)
0x00001419: add byte [rax], al ; add byte [rax-0x01], cl ; retn 0xFF49 ;  (1 found)
0x0000170a: add byte [rax], al ; add byte [rax-0x01], cl ; retn 0xFF49 ;  (1 found)
0x00001769: add byte [rax], al ; add byte [rax-0x01], cl ; retn 0xFF49 ;  (1 found)
0x000046ef: add byte [rax], al ; add byte [rax-0x75], cl ; and dword [rax+0x48000000], 0xFFFFFF83 ; retn 0x4C10 ;  (1 found)
0x00003a87: add byte [rax], al ; add byte [rax-0x7D], cl ; enter 0x0008, 0xFF ; retn 0x5489 ;  (1 found)
0x000046f6: add byte [rax], al ; add byte [rax-0x7D], cl ; retn 0x4C10 ;  (1 found)
0x000090ea: add byte [rax], al ; add byte [rax], al ; add byte [rax], al ; retn 0x00C9 ;  (1 found)
0x0000b5ca: add byte [rax], al ; add byte [rax], al ; add byte [rax], al ; retn 0x00C9 ;  (1 found)
0x000090e3: add byte [rax], al ; add byte [rax], al ; add byte [rcx+rcx*8+0x00000000], dh ; add byte [rax], al ; retn 0x00C9 ;  (1 found)
0x0000b5c3: add byte [rax], al ; add byte [rax], al ; add byte [rcx+rcx*8+0x00000000], dh ; add byte [rax], al ; retn 0x00C9 ;  (1 found)
0x0000515c: add byte [rax], al ; add byte [rax], al ; ret  ;  (1 found)
0x000090ec: add byte [rax], al ; add byte [rax], al ; retn 0x00C9 ;  (1 found)
0x0000b5cc: add byte [rax], al ; add byte [rax], al ; retn 0x00C9 ;  (1 found)
0x000047ca: add byte [rax], al ; add byte [rbx+0x0000B093], cl ; add byte [rcx+0x00000008], bh ; call r8 ;  (1 found)
0x00000595: add byte [rax], al ; add byte [rbx+0x48202444], cl ; add esp, 0x38 ; ret  ;  (1 found)
0x00002b5f: add byte [rax], al ; add byte [rbx], ch ; retn 0xF8D1 ;  (1 found)
0x000047d0: add byte [rax], al ; add byte [rcx+0x00000008], bh ; call r8 ;  (1 found)
0x000090e5: add byte [rax], al ; add byte [rcx+rcx*8+0x00000000], dh ; add byte [rax], al ; retn 0x00C9 ;  (1 found)
0x0000b5c5: add byte [rax], al ; add byte [rcx+rcx*8+0x00000000], dh ; add byte [rax], al ; retn 0x00C9 ;  (1 found)
0x000047c1: add byte [rax], al ; add byte [rdi], cl ; retn 0x8389 ;  (1 found)
0x00001f3e: add byte [rax], al ; add byte [rdi], cl ; xchg eax, ebp ; ret  ;  (1 found)
0x00006223: add byte [rax], al ; add ch, bh ; add rsp, 0x40 ; pop rbx ; ret  ;  (1 found)
0x0000626d: add byte [rax], al ; add ch, bh ; add rsp, 0x40 ; pop rbx ; ret  ;  (1 found)
0x0000af3a: add byte [rax], al ; add dword [rax], eax ; add byte [rax], al ; ret  ;  (1 found)
0x000021bc: add byte [rax], al ; add rsp, 0x0000000000000088 ; ret  ;  (1 found)
0x00000eb9: add byte [rax], al ; add rsp, 0x00000000000000B8 ; ret  ;  (1 found)
0x00000d04: add byte [rax], al ; add rsp, 0x0000000000000158 ; ret  ;  (1 found)
0x00000aa9: add byte [rax], al ; add rsp, 0x0000000000000168 ; ret  ;  (1 found)
0x00000dd3: add byte [rax], al ; add rsp, 0x0000000000000168 ; ret  ;  (1 found)
0x00000479: add byte [rax], al ; add rsp, 0x00000000000001E8 ; ret  ;  (1 found)
0x00000857: add byte [rax], al ; add rsp, 0x0000000000000268 ; ret  ;  (1 found)
0x0000096b: add byte [rax], al ; add rsp, 0x0000000000000268 ; ret  ;  (1 found)
0x0000511a: add byte [rax], al ; add rsp, 0x00000000000004D8 ; ret  ;  (1 found)
0x0000116d: add byte [rax], al ; add rsp, 0x0000000000001088 ; ret  ;  (1 found)
0x000011f2: add byte [rax], al ; add rsp, 0x28 ; ret  ;  (1 found)
0x0000061f: add byte [rax], al ; add rsp, 0x28 ; ret  ;  (1 found)
0x00003888: add byte [rax], al ; add rsp, 0x28 ; ret  ;  (1 found)
0x000038a6: add byte [rax], al ; add rsp, 0x28 ; ret  ;  (1 found)
0x0000501f: add byte [rax], al ; add rsp, 0x28 ; ret  ;  (1 found)
0x00008bb3: add byte [rax], al ; add rsp, 0x28 ; ret  ;  (1 found)
0x000006b9: add byte [rax], al ; add rsp, 0x38 ; ret  ;  (1 found)
0x00000b22: add byte [rax], al ; add rsp, 0x48 ; ret  ;  (1 found)
0x00008b90: add byte [rax], al ; add rsp, 0x48 ; ret  ;  (1 found)
0x00000546: add byte [rax], al ; add rsp, 0x58 ; ret  ;  (1 found)
0x0000dbae: add byte [rax], al ; and al, 0x76 ; add byte [rax], al ; xchg eax, esp ; retn 0x0000 ;  (1 found)
0x0000251e: add byte [rax], al ; bts dword [rbx+0x18], 0x0F ; add rsp, 0x20 ; pop rbx ; ret  ;  (1 found)
0x00002550: add byte [rax], al ; bts dword [rbx+0x18], 0x0F ; add rsp, 0x20 ; pop rbx ; ret  ;  (1 found)
0x000047d6: add byte [rax], al ; call r8 ;  (1 found)
0x0000dc8e: add byte [rax], al ; clc  ; mov dword [rax], eax ; add byte [rsi-0x4FFFFF76], cl ; ret  ;  (1 found)
0x0000da92: add byte [rax], al ; clc  ; ret  ;  (1 found)
0x0000dcc6: add byte [rax], al ; clc  ; ret  ;  (1 found)
0x00003581: add byte [rax], al ; cmp ecx, 0x0E ; cmovbe eax, r8d ; ret  ;  (1 found)
0x000040e4: add byte [rax], al ; cmp word [rcx+0x18], dx ; sete al ; rep ret  ;  (1 found)
0x0000dbf2: add byte [rax], al ; fdivr qword [rax+0x00] ; add byte [rdi-0x4FFFFF87], bh ; retn 0x0000 ;  (1 found)
0x00002f16: add byte [rax], al ; lea rdx, qword [rbp-0x80] ; mov rcx, rbx ; call rax ;  (1 found)
0x00002f17: add byte [rax], al ; lea rdx, qword [rbp-0x80] ; mov rcx, rbx ; call rax ;  (1 found)
0x00002f18: add byte [rax], al ; lea rdx, qword [rbp-0x80] ; mov rcx, rbx ; call rax ;  (1 found)
0x00002f37: add byte [rax], al ; lea rdx, qword [rbp-0x80] ; mov rcx, rbx ; call rax ;  (1 found)
0x00002f38: add byte [rax], al ; lea rdx, qword [rbp-0x80] ; mov rcx, rbx ; call rax ;  (1 found)
0x00005f8e: add byte [rax], al ; lock add dword [rax+0x00000160], r9d ; mov rax, rcx ; ret  ;  (1 found)
0x00005eee: add byte [rax], al ; lock inc dword [rax+0x00000160] ; ret  ;  (1 found)
0x0000db92: add byte [rax], al ; mov al, byte [0x90000073D4000070] ; retn 0x0000 ;  (1 found)
0x0000db2e: add byte [rax], al ; mov byte [rsi+0x6B9C0000], bh ; add byte [rax], al ; adc eax, 0x5000006D ; retn 0x0000 ;  (1 found)
0x0000501a: add byte [rax], al ; mov eax, 0x00000001 ; add rsp, 0x28 ; ret  ;  (1 found)
0x00000596: add byte [rax], al ; mov eax, dword [rsp+0x20] ; add rsp, 0x38 ; ret  ;  (1 found)
0x000047d1: add byte [rax], al ; mov ecx, 0x00000008 ; call r8 ;  (1 found)
0x00003abf: add byte [rax], al ; mov ecx, edi ; call r13 ;  (1 found)
0x0000dbf6: add byte [rax], al ; mov edi, 0xB0000079 ; retn 0x0000 ;  (1 found)
0x000047cb: add byte [rax], al ; mov edx, dword [rbx+0x000000B0] ; mov ecx, 0x00000008 ; call r8 ;  (1 found)
0x00008b89: add byte [rax], al ; mov qword [0x000000000000DA70], rax ; add rsp, 0x48 ; ret  ;  (1 found)
0x0000389f: add byte [rax], al ; mov qword [0x000000000000E2E0], rax ; add rsp, 0x28 ; ret  ;  (1 found)
0x000038b5: add byte [rax], al ; mov qword [0x000000000000E2F0], rcx ; mov qword [0x000000000000E2F8], rcx ; mov qword [0x000000000000E300], rcx ; ret  ;  (1 found)
0x000038bc: add byte [rax], al ; mov qword [0x000000000000E2F8], rcx ; mov qword [0x000000000000E300], rcx ; ret  ;  (1 found)
0x000038c3: add byte [rax], al ; mov qword [0x000000000000E300], rcx ; ret  ;  (1 found)
0x00001bbe: add byte [rax], al ; mov qword [rdi], rax ; call rbx ;  (1 found)
0x00005f96: add byte [rax], al ; mov rax, rcx ; ret  ;  (1 found)
0x0000788d: add byte [rax], al ; mov rbx, qword [rsp+0x30] ; add rsp, 0x20 ; pop rdi ; ret  ;  (1 found)
0x00003e1a: add byte [rax], al ; mov rbx, qword [rsp+0x38] ; add rsp, 0x20 ; pop rdi ; ret  ;  (1 found)
0x000050ce: add byte [rax], al ; mov rbx, qword [rsp+0x40] ; add rsp, 0x20 ; pop rdi ; ret  ;  (1 found)
0x00008ded: add byte [rax], al ; nop  ; add rsp, 0x20 ; pop rbp ; ret  ;  (1 found)
0x0000db9a: add byte [rax], al ; nop  ; retn 0x0000 ;  (1 found)
0x0000dc9e: add byte [rax], al ; out dx, al ; mov eax, dword [rax] ; add al, al ; ret  ;  (1 found)
0x0000dcaa: add byte [rax], al ; outsb  ; mov word [rax], es ; add al, ch ; ret  ;  (1 found)
0x0000da8a: add byte [rax], al ; pop rsi ; add byte [rax], al ; sub eax, 0xF800005F ; ret  ;  (1 found)
0x0000db1e: add byte [rax], al ; push 0x00000000 ; add byte [rax], ah ; retn 0x0000 ;  (1 found)
0x0000d67e: add byte [rax], al ; push rax ; mov ebp, 0x19F00000 ; add byte [rax], al ; ret  ;  (1 found)
0x0000daaa: add byte [rax], al ; push rax ; retn 0x0000 ;  (1 found)
0x0000db3a: add byte [rax], al ; push rax ; retn 0x0000 ;  (1 found)
0x0000dc42: add byte [rax], al ; push rax ; retn 0x0000 ;  (1 found)
0x0000dc5a: add byte [rax], al ; push rax ; retn 0x0000 ;  (1 found)
0x0000db32: add byte [rax], al ; pushfq  ; imul eax, dword [rax], 0x00 ; adc eax, 0x5000006D ; retn 0x0000 ;  (1 found)
0x0000d6ea: add byte [rax], al ; pushfq  ; mov ebp, 0x22180000 ; add byte [rax], al ; ret  ;  (1 found)
0x00000ec0: add byte [rax], al ; ret  ;  (1 found)
0x00001174: add byte [rax], al ; ret  ;  (1 found)
0x000021c3: add byte [rax], al ; ret  ;  (1 found)
0x000023cd: add byte [rax], al ; ret  ;  (1 found)
0x00003339: add byte [rax], al ; ret  ;  (1 found)
0x00003575: add byte [rax], al ; ret  ;  (1 found)
0x00000480: add byte [rax], al ; ret  ;  (1 found)
0x0000085e: add byte [rax], al ; ret  ;  (1 found)
0x00000972: add byte [rax], al ; ret  ;  (1 found)
0x00000ab0: add byte [rax], al ; ret  ;  (1 found)
0x00000d0b: add byte [rax], al ; ret  ;  (1 found)
0x00000dda: add byte [rax], al ; ret  ;  (1 found)
0x000038ca: add byte [rax], al ; ret  ;  (1 found)
0x00003b19: add byte [rax], al ; ret  ;  (1 found)
0x00003b21: add byte [rax], al ; ret  ;  (1 found)
0x00003b29: add byte [rax], al ; ret  ;  (1 found)
0x000050e1: add byte [rax], al ; ret  ;  (1 found)
0x00005121: add byte [rax], al ; ret  ;  (1 found)
0x0000515e: add byte [rax], al ; ret  ;  (1 found)
0x00005ef5: add byte [rax], al ; ret  ;  (1 found)
0x0000af3e: add byte [rax], al ; ret  ;  (1 found)
0x0000d686: add byte [rax], al ; ret  ;  (1 found)
0x0000d6f2: add byte [rax], al ; ret  ;  (1 found)
0x0000dc13: add byte [rax], al ; ret  ;  (1 found)
0x000090ee: add byte [rax], al ; retn 0x00C9 ;  (1 found)
0x0000b5ce: add byte [rax], al ; retn 0x00C9 ;  (1 found)
0x0000d6ee: add byte [rax], al ; sbb byte [rdx], ah ; add byte [rax], al ; ret  ;  (1 found)
0x000016d6: add byte [rax], al ; sete al ; ret  ;  (1 found)
0x00006224: add byte [rax], al ; std  ; add rsp, 0x40 ; pop rbx ; ret  ;  (1 found)
0x0000626e: add byte [rax], al ; std  ; add rsp, 0x40 ; pop rbx ; ret  ;  (1 found)
0x0000da8e: add byte [rax], al ; sub eax, 0xF800005F ; ret  ;  (1 found)
0x0000dbb2: add byte [rax], al ; xchg eax, esp ; retn 0x0000 ;  (1 found)
0x00004637: add byte [rax], al ; xor eax, eax ; add rsp, 0x28 ; ret  ;  (1 found)
0x00005e63: add byte [rax], al ; xor eax, eax ; add rsp, 0x28 ; ret  ;  (1 found)
0x00008b8f: add byte [rax], r8L ; add rsp, 0x48 ; ret  ;  (1 found)
0x00004636: add byte [rax], r8L ; xor eax, eax ; add rsp, 0x28 ; ret  ;  (1 found)
0x000040de: add byte [rbp+0x0C], dh ; mov edx, 0x0000020B ; cmp word [rcx+0x18], dx ; sete al ; rep ret  ;  (1 found)
0x00008812: add byte [rbp+0x0FD974C0], al ; mov bh, 0x44 ; and al, 0x40 ; add rsp, 0x38 ; ret  ;  (1 found)
0x0000daa7: add byte [rbp+0x60], dl ; add byte [rax], al ; push rax ; retn 0x0000 ;  (1 found)
0x0000d6eb: add byte [rbp+rdi*4+0x22180000], bl ; add byte [rax], al ; ret  ;  (1 found)
0x00003666: add byte [rbp-0x00D98B40], al ; ret  ;  (1 found)
0x000047cc: add byte [rbx+0x0000B093], cl ; add byte [rcx+0x00000008], bh ; call r8 ;  (1 found)
0x00003582: add byte [rbx+0x0F410EF9], al ; rol bl, 0x00000048 ; cwde  ; mov eax, dword [r9+rax*8+0x04] ; ret  ;  (1 found)
0x00000597: add byte [rbx+0x48202444], cl ; add esp, 0x38 ; ret  ;  (1 found)
0x000079dc: add byte [rbx+0x5C8B48C7], cl ; and al, 0x30 ; add rsp, 0x20 ; pop rdi ; ret  ;  (1 found)
0x0000db33: add byte [rbx+rbp*2+0x6D150000], bl ; add byte [rax], al ; push rax ; retn 0x0000 ;  (1 found)
0x000016b9: add byte [rbx-0x3B7CB739], cl ; sub byte [rdi+0x5B], bl ; ret  ;  (1 found)
0x00003ab6: add byte [rbx], bh ; fbstp  [rbp+0x0D] ; mov edx, dword [rsi+0x000000B0] ; mov ecx, edi ; call r13 ;  (1 found)
0x00002e45: add byte [rbx], ch ; ret  ;  (1 found)
0x00002b61: add byte [rbx], ch ; retn 0xF8D1 ;  (1 found)
0x000047d2: add byte [rcx+0x00000008], bh ; call r8 ;  (1 found)
0x00008e24: add byte [rcx+0x4890FFFF], ch ; add esp, 0x20 ; pop rbp ; ret  ;  (1 found)
0x000090e7: add byte [rcx+rcx*8+0x00000000], dh ; add byte [rax], al ; retn 0x00C9 ;  (1 found)
0x0000b5c7: add byte [rcx+rcx*8+0x00000000], dh ; add byte [rax], al ; retn 0x00C9 ;  (1 found)
0x00004ac2: add byte [rcx-0x01], al ; add byte [r8-0x01], r9L ; ret  ;  (1 found)
0x000053b4: add byte [rcx-0x7D], cl ; and al, 0xF3 ; add bh, bh ; ret  ;  (1 found)
0x0000586a: add byte [rcx], al ; add byte [rax], al ; add bh, bh ; retn 0xFF48 ;  (1 found)
0x0000dbf7: add byte [rdi-0x4FFFFF87], bh ; retn 0x0000 ;  (1 found)
0x0000dc57: add byte [rdi-0x7B], ch ; add byte [rax], al ; push rax ; retn 0x0000 ;  (1 found)
0x0000251f: add byte [rdi], cl ; mov edx, 0x480F186B ; add esp, 0x20 ; pop rbx ; ret  ;  (1 found)
0x00002551: add byte [rdi], cl ; mov edx, 0x480F186B ; add esp, 0x20 ; pop rbx ; ret  ;  (1 found)
0x000047c3: add byte [rdi], cl ; retn 0x8389 ;  (1 found)
0x00001f40: add byte [rdi], cl ; xchg eax, ebp ; ret  ;  (1 found)
0x0000d6e7: add byte [rdi], dl ; and al, byte [rax] ; add byte [rbp+rdi*4+0x22180000], bl ; add byte [rax], al ; ret  ;  (1 found)
0x0000db2b: add byte [rdx+rbp*2+0x00], ch ; add byte [rax-0x63FFFF42], cl ; imul eax, dword [rax], 0x00 ; adc eax, 0x5000006D ; retn 0x0000 ;  (1 found)
0x000090df: add byte [rsi+0x000000C9], ah ; add byte [rax], al ; add byte [rcx+rcx*8+0x00000000], dh ; add byte [rax], al ; retn 0x00C9 ;  (1 found)
0x0000b5bf: add byte [rsi+0x000000C9], ah ; add byte [rax], al ; add byte [rcx+rcx*8+0x00000000], dh ; add byte [rax], al ; retn 0x00C9 ;  (1 found)
0x0000dbaf: add byte [rsi+rsi*2], ah ; add byte [rax], al ; xchg eax, esp ; retn 0x0000 ;  (1 found)
0x0000dc93: add byte [rsi-0x4FFFFF76], cl ; ret  ;  (1 found)
0x0000dc53: add byte [rsp+rax*4-0x7A910000], bl ; add byte [rax], al ; push rax ; retn 0x0000 ;  (1 found)
0x00006225: add ch, bh ; add rsp, 0x40 ; pop rbx ; ret  ;  (1 found)
0x0000626f: add ch, bh ; add rsp, 0x40 ; pop rbx ; ret  ;  (1 found)
0x000059e2: add ch, bh ; mov eax, ebx ; add rsp, 0x40 ; pop rbx ; ret  ;  (1 found)
0x00007d3d: add ch, bl ; fld qword [rax] ; add byte [rax-0x7D], cl ; ret  ;  (1 found)
0x00007f5c: add ch, bl ; fld qword [rax] ; add byte [rax-0x7D], cl ; ret  ;  (1 found)
0x00008f22: add ch, byte [rax+0x4890FFFF] ; add esp, 0x20 ; pop rbp ; ret  ;  (1 found)
0x00007373: add cl, byte [rax-0x7D] ; retn 0x4802 ;  (1 found)
0x00007377: add cl, byte [rax-0x7D] ; retn 0x6602 ;  (1 found)
0x0000dc3f: add dh, bh ; add dword [rax], 0x00000000 ; push rax ; retn 0x0000 ;  (1 found)
0x00001223: add dh, bl ; ret  ;  (1 found)
0x0000dc9f: add dh, ch ; mov eax, dword [rax] ; add al, al ; ret  ;  (1 found)
0x00005f92: add dword [rax+0x00000160], ecx ; mov rax, rcx ; ret  ;  (1 found)
0x00005f91: add dword [rax+0x00000160], r9d ; mov rax, rcx ; ret  ;  (1 found)
0x000016d0: add dword [rax+0x39], ecx ; or eax, 0x0000C3C8 ; sete al ; ret  ;  (1 found)
0x0000277f: add dword [rax-0x75], ecx ; ret  ;  (1 found)
0x00002440: add dword [rax-0x7D], ecx ; retn 0x4830 ;  (1 found)
0x0000dc41: add dword [rax], 0x00000000 ; push rax ; retn 0x0000 ;  (1 found)
0x0000dc0d: add dword [rax], 0x0081FF00 ; add byte [rax], al ; ret  ;  (1 found)
0x0000dc05: add dword [rax], 0x00C2DC00 ; add byte [rax], ah ; add dword [rax], 0x0081FF00 ; add byte [rax], al ; ret  ;  (1 found)
0x00005a9b: add dword [rax], eax ; add al, ch ; std  ; retn 0xFFFF ;  (1 found)
0x00005f8d: add dword [rax], eax ; add al, dh ; add dword [rax+0x00000160], r9d ; mov rax, rcx ; ret  ;  (1 found)
0x00005eed: add dword [rax], eax ; add al, dh ; inc dword [rax+0x00000160] ; ret  ;  (1 found)
0x00006f96: add dword [rax], eax ; add byte [rax-0x01], cl ; ret  ;  (1 found)
0x000011f0: add dword [rax], eax ; add byte [rax], al ; add rsp, 0x28 ; ret  ;  (1 found)
0x0000501d: add dword [rax], eax ; add byte [rax], al ; add rsp, 0x28 ; ret  ;  (1 found)
0x00000594: add dword [rax], eax ; add byte [rax], al ; mov eax, dword [rsp+0x20] ; add rsp, 0x38 ; ret  ;  (1 found)
0x0000af3c: add dword [rax], eax ; add byte [rax], al ; ret  ;  (1 found)
0x00005e61: add dword [rax], eax ; add byte [rax], al ; xor eax, eax ; add rsp, 0x28 ; ret  ;  (1 found)
0x00002e43: add dword [rax], eax ; add byte [rbx], ch ; ret  ;  (1 found)
0x000066ca: add dword [rbp-0x0D], esi ; mov rax, r11 ; ret  ;  (1 found)
0x00002386: add dword [rcx+0x44894101], esi ; and al, 0x48 ; mov r8d, dword [rbx-0x04] ; add r8, r15 ; call r8 ;  (1 found)
0x00002385: add dword [rcx+0x44894101], r14d ; and al, 0x48 ; mov r8d, dword [rbx-0x04] ; add r8, r15 ; call r8 ;  (1 found)
0x00002388: add dword [rcx-0x77], eax ; and al, 0x48 ; mov r8d, dword [rbx-0x04] ; add r8, r15 ; call r8 ;  (1 found)
0x00008b8d: add eax, 0x00004EDE ; add rsp, 0x48 ; ret  ;  (1 found)
0x000023ca: add eax, 0x0000A431 ; ret  ;  (1 found)
0x000038a3: add eax, 0x0000AA38 ; add rsp, 0x28 ; ret  ;  (1 found)
0x000035ac: add eax, 0x10 ; add rsp, 0x28 ; ret  ;  (1 found)
0x000035cc: add eax, 0x14 ; add rsp, 0x28 ; ret  ;  (1 found)
0x000023eb: add eax, 0x4C0FC33B ; ret  ;  (1 found)
0x0000615c: add eax, 0xFFFE3AE8 ; dec dword [rax-0x75] ; ret  ;  (1 found)
0x000041a5: add eax, eax ; mov rax, qword [r8+rax*8+0x08] ; ret  ;  (1 found)
0x00002393: add eax, edi ; call r8 ;  (1 found)
0x0000225b: add eax, edi ; call rax ;  (1 found)
0x00001925: add eax, edi ; ret  ;  (1 found)
0x00001924: add eax, r15d ; ret  ;  (1 found)
0x00001907: add ebp, edi ; ret  ;  (1 found)
0x00001906: add ebp, r15d ; ret  ;  (1 found)
0x00001913: add ebx, edi ; ret  ;  (1 found)
0x00001912: add ebx, r15d ; ret  ;  (1 found)
0x00003578: add ecx, 0xFFFFFF44 ; mov eax, 0x00000016 ; cmp ecx, 0x0E ; cmovbe eax, r8d ; ret  ;  (1 found)
0x00004aa2: add ecx, dword [rax-0x01] ; ret  ;  (1 found)
0x00005679: add ecx, dword [rax-0x01] ; ret  ;  (1 found)
0x00002251: add ecx, dword [rax-0x73] ; and al, 0x30 ; mov rdx, r13 ; add rax, r15 ; call rax ;  (1 found)
0x000040a5: add ecx, dword [rax-0x7D] ; ret  ;  (1 found)
0x00006b32: add ecx, dword [rcx-0x7D] ; ret  ;  (1 found)
0x0000191f: add ecx, edi ; ret  ;  (1 found)
0x0000191e: add ecx, r15d ; ret  ;  (1 found)
0x000018fb: add edi, edi ; ret  ;  (1 found)
0x000018fa: add edi, r15d ; ret  ;  (1 found)
0x00001919: add edx, edi ; ret  ;  (1 found)
0x00001918: add edx, r15d ; ret  ;  (1 found)
0x00001901: add esi, edi ; ret  ;  (1 found)
0x00001900: add esi, r15d ; ret  ;  (1 found)
0x000021bf: add esp, 0x00000088 ; ret  ;  (1 found)
0x00000ebc: add esp, 0x000000B8 ; ret  ;  (1 found)
0x00000d07: add esp, 0x00000158 ; ret  ;  (1 found)
0x00000aac: add esp, 0x00000168 ; ret  ;  (1 found)
0x00000dd6: add esp, 0x00000168 ; ret  ;  (1 found)
0x0000047c: add esp, 0x000001E8 ; ret  ;  (1 found)
0x0000085a: add esp, 0x00000268 ; ret  ;  (1 found)
0x0000096e: add esp, 0x00000268 ; ret  ;  (1 found)
0x0000511d: add esp, 0x000004D8 ; ret  ;  (1 found)
0x00001170: add esp, 0x00001088 ; ret  ;  (1 found)
0x00001eea: add esp, 0x10 ; ret  ;  (1 found)
0x00007b23: add esp, 0x20 ; pop r12 ; pop rdi ; pop rsi ; ret  ;  (1 found)
0x00008b1b: add esp, 0x20 ; pop r12 ; pop rdi ; pop rsi ; ret  ;  (1 found)
0x000026a7: add esp, 0x20 ; pop r12 ; ret  ;  (1 found)
0x000028c9: add esp, 0x20 ; pop r12 ; ret  ;  (1 found)
0x0000368b: add esp, 0x20 ; pop r12 ; ret  ;  (1 found)
0x000051dc: add esp, 0x20 ; pop r12 ; ret  ;  (1 found)
0x00005261: add esp, 0x20 ; pop r12 ; ret  ;  (1 found)
0x000052e7: add esp, 0x20 ; pop r12 ; ret  ;  (1 found)
0x00003820: add esp, 0x20 ; pop r13 ; ret  ;  (1 found)
0x00003ff0: add esp, 0x20 ; pop r14 ; pop r13 ; pop r12 ; ret  ;  (1 found)
0x00004b05: add esp, 0x20 ; pop r14 ; pop r13 ; pop r12 ; ret  ;  (1 found)
0x00008797: add esp, 0x20 ; pop r14 ; ret  ;  (1 found)
0x00008d91: add esp, 0x20 ; pop rbp ; ret  ;  (1 found)
0x00008db5: add esp, 0x20 ; pop rbp ; ret  ;  (1 found)
0x00008dd3: add esp, 0x20 ; pop rbp ; ret  ;  (1 found)
0x00008df1: add esp, 0x20 ; pop rbp ; ret  ;  (1 found)
0x00008e0f: add esp, 0x20 ; pop rbp ; ret  ;  (1 found)
0x00008e2a: add esp, 0x20 ; pop rbp ; ret  ;  (1 found)
0x00008e4a: add esp, 0x20 ; pop rbp ; ret  ;  (1 found)
0x00008e60: add esp, 0x20 ; pop rbp ; ret  ;  (1 found)
0x00008e8c: add esp, 0x20 ; pop rbp ; ret  ;  (1 found)
0x00008ea7: add esp, 0x20 ; pop rbp ; ret  ;  (1 found)
0x00008ecf: add esp, 0x20 ; pop rbp ; ret  ;  (1 found)
0x00008ef2: add esp, 0x20 ; pop rbp ; ret  ;  (1 found)
0x00008f0d: add esp, 0x20 ; pop rbp ; ret  ;  (1 found)
0x00008f28: add esp, 0x20 ; pop rbp ; ret  ;  (1 found)
0x00008f41: add esp, 0x20 ; pop rbp ; ret  ;  (1 found)
0x00008f5b: add esp, 0x20 ; pop rbp ; ret  ;  (1 found)
0x00008f74: add esp, 0x20 ; pop rbp ; ret  ;  (1 found)
0x00008f8f: add esp, 0x20 ; pop rbp ; ret  ;  (1 found)
0x0000195c: add esp, 0x20 ; pop rbx ; ret  ;  (1 found)
0x000024ab: add esp, 0x20 ; pop rbx ; ret  ;  (1 found)
0x00002526: add esp, 0x20 ; pop rbx ; ret  ;  (1 found)
0x00002558: add esp, 0x20 ; pop rbx ; ret  ;  (1 found)
0x000026e2: add esp, 0x20 ; pop rbx ; ret  ;  (1 found)
0x00002784: add esp, 0x20 ; pop rbx ; ret  ;  (1 found)
0x000027cd: add esp, 0x20 ; pop rbx ; ret  ;  (1 found)
0x00003615: add esp, 0x20 ; pop rbx ; ret  ;  (1 found)
0x00003b5a: add esp, 0x20 ; pop rbx ; ret  ;  (1 found)
0x00003cef: add esp, 0x20 ; pop rbx ; ret  ;  (1 found)
0x00003ea4: add esp, 0x20 ; pop rbx ; ret  ;  (1 found)
0x00003eea: add esp, 0x20 ; pop rbx ; ret  ;  (1 found)
0x00005328: add esp, 0x20 ; pop rbx ; ret  ;  (1 found)
0x0000549f: add esp, 0x20 ; pop rbx ; ret  ;  (1 found)
0x0000616a: add esp, 0x20 ; pop rbx ; ret  ;  (1 found)
0x000061e0: add esp, 0x20 ; pop rbx ; ret  ;  (1 found)
0x00006a57: add esp, 0x20 ; pop rbx ; ret  ;  (1 found)
0x00006afa: add esp, 0x20 ; pop rbx ; ret  ;  (1 found)
0x00006bcb: add esp, 0x20 ; pop rbx ; ret  ;  (1 found)
0x0000764e: add esp, 0x20 ; pop rbx ; ret  ;  (1 found)
0x00007680: add esp, 0x20 ; pop rbx ; ret  ;  (1 found)
0x00008459: add esp, 0x20 ; pop rbx ; ret  ;  (1 found)
0x000084c7: add esp, 0x20 ; pop rbx ; ret  ;  (1 found)
0x000085d1: add esp, 0x20 ; pop rbx ; ret  ;  (1 found)
0x00008b56: add esp, 0x20 ; pop rbx ; ret  ;  (1 found)
0x00001a06: add esp, 0x20 ; pop rdi ; ret  ;  (1 found)
0x00001a40: add esp, 0x20 ; pop rdi ; ret  ;  (1 found)
0x00001af2: add esp, 0x20 ; pop rdi ; ret  ;  (1 found)
0x00002820: add esp, 0x20 ; pop rdi ; ret  ;  (1 found)
0x00003722: add esp, 0x20 ; pop rdi ; ret  ;  (1 found)
0x00003c44: add esp, 0x20 ; pop rdi ; ret  ;  (1 found)
0x00003ccb: add esp, 0x20 ; pop rdi ; ret  ;  (1 found)
0x00003e22: add esp, 0x20 ; pop rdi ; ret  ;  (1 found)
0x00004047: add esp, 0x20 ; pop rdi ; ret  ;  (1 found)
0x0000407f: add esp, 0x20 ; pop rdi ; ret  ;  (1 found)
0x000040b5: add esp, 0x20 ; pop rdi ; ret  ;  (1 found)
0x000045dc: add esp, 0x20 ; pop rdi ; ret  ;  (1 found)
0x0000480b: add esp, 0x20 ; pop rdi ; ret  ;  (1 found)
0x000050d6: add esp, 0x20 ; pop rdi ; ret  ;  (1 found)
0x00005450: add esp, 0x20 ; pop rdi ; ret  ;  (1 found)
0x000056ab: add esp, 0x20 ; pop rdi ; ret  ;  (1 found)
0x00005955: add esp, 0x20 ; pop rdi ; ret  ;  (1 found)
0x00006cd4: add esp, 0x20 ; pop rdi ; ret  ;  (1 found)
0x000077f9: add esp, 0x20 ; pop rdi ; ret  ;  (1 found)
0x00007895: add esp, 0x20 ; pop rdi ; ret  ;  (1 found)
0x00007935: add esp, 0x20 ; pop rdi ; ret  ;  (1 found)
0x000079e5: add esp, 0x20 ; pop rdi ; ret  ;  (1 found)
0x00007a4d: add esp, 0x20 ; pop rdi ; ret  ;  (1 found)
0x0000867d: add esp, 0x20 ; pop rdi ; ret  ;  (1 found)
0x00008a5b: add esp, 0x20 ; pop rdi ; ret  ;  (1 found)
0x000016bd: add esp, 0x28 ; pop rdi ; pop rbx ; ret  ;  (1 found)
0x000011f5: add esp, 0x28 ; ret  ;  (1 found)
0x000035b0: add esp, 0x28 ; ret  ;  (1 found)
0x000035d0: add esp, 0x28 ; ret  ;  (1 found)
0x00000622: add esp, 0x28 ; ret  ;  (1 found)
0x0000388b: add esp, 0x28 ; ret  ;  (1 found)
0x000038a9: add esp, 0x28 ; ret  ;  (1 found)
0x0000400f: add esp, 0x28 ; ret  ;  (1 found)
0x0000417d: add esp, 0x28 ; ret  ;  (1 found)
0x0000444f: add esp, 0x28 ; ret  ;  (1 found)
0x00004621: add esp, 0x28 ; ret  ;  (1 found)
0x0000463c: add esp, 0x28 ; ret  ;  (1 found)
0x00005022: add esp, 0x28 ; ret  ;  (1 found)
0x000055f7: add esp, 0x28 ; ret  ;  (1 found)
0x0000561e: add esp, 0x28 ; ret  ;  (1 found)
0x00005e68: add esp, 0x28 ; ret  ;  (1 found)
0x000067f2: add esp, 0x28 ; ret  ;  (1 found)
0x00006c40: add esp, 0x28 ; ret  ;  (1 found)
0x000086f4: add esp, 0x28 ; ret  ;  (1 found)
0x00008bb6: add esp, 0x28 ; ret  ;  (1 found)
0x00005e3c: add esp, 0x30 ; pop r13 ; ret  ;  (1 found)
0x00005586: add esp, 0x30 ; pop r15 ; pop r13 ; pop r12 ; ret  ;  (1 found)
0x00002062: add esp, 0x30 ; pop rdi ; ret  ;  (1 found)
0x00003516: add esp, 0x30 ; pop rdi ; ret  ;  (1 found)
0x0000490c: add esp, 0x30 ; pop rdi ; ret  ;  (1 found)
0x00004c01: add esp, 0x30 ; pop rdi ; ret  ;  (1 found)
0x000053d5: add esp, 0x30 ; pop rdi ; ret  ;  (1 found)
0x00003546: add esp, 0x38 ; ret  ;  (1 found)
0x0000059d: add esp, 0x38 ; ret  ;  (1 found)
0x000006bc: add esp, 0x38 ; ret  ;  (1 found)
0x0000644c: add esp, 0x38 ; ret  ;  (1 found)
0x0000881d: add esp, 0x38 ; ret  ;  (1 found)
0x00004cf6: add esp, 0x40 ; pop r12 ; ret  ;  (1 found)
0x000059e7: add esp, 0x40 ; pop rbx ; ret  ;  (1 found)
0x00006228: add esp, 0x40 ; pop rbx ; ret  ;  (1 found)
0x00006272: add esp, 0x40 ; pop rbx ; ret  ;  (1 found)
0x0000772e: add esp, 0x40 ; pop rdi ; ret  ;  (1 found)
0x00000b25: add esp, 0x48 ; ret  ;  (1 found)
0x00008b93: add esp, 0x48 ; ret  ;  (1 found)
0x0000887a: add esp, 0x50 ; pop rbp ; ret  ;  (1 found)
0x00001d81: add esp, 0x50 ; pop rdi ; pop rbx ; pop rbp ; ret  ;  (1 found)
0x00000549: add esp, 0x58 ; ret  ;  (1 found)
0x00006341: add esp, 0x60 ; pop rdi ; pop rsi ; pop rbp ; ret  ;  (1 found)
0x00008069: add esp, 0x60 ; pop rdi ; ret  ;  (1 found)
0x0000190d: add esp, edi ; ret  ;  (1 found)
0x0000190c: add esp, r15d ; ret  ;  (1 found)
0x00002392: add r8, r15 ; call r8 ;  (1 found)
0x000035ab: add rax, 0x10 ; add rsp, 0x28 ; ret  ;  (1 found)
0x000035cb: add rax, 0x14 ; add rsp, 0x28 ; ret  ;  (1 found)
0x0000225a: add rax, r15 ; call rax ;  (1 found)
0x000041a4: add rax, rax ; mov rax, qword [r8+rax*8+0x08] ; ret  ;  (1 found)
0x000021be: add rsp, 0x0000000000000088 ; ret  ;  (1 found)
0x00000ebb: add rsp, 0x00000000000000B8 ; ret  ;  (1 found)
0x00000d06: add rsp, 0x0000000000000158 ; ret  ;  (1 found)
0x00000aab: add rsp, 0x0000000000000168 ; ret  ;  (1 found)
0x00000dd5: add rsp, 0x0000000000000168 ; ret  ;  (1 found)
0x0000047b: add rsp, 0x00000000000001E8 ; ret  ;  (1 found)
0x00000859: add rsp, 0x0000000000000268 ; ret  ;  (1 found)
0x0000096d: add rsp, 0x0000000000000268 ; ret  ;  (1 found)
0x0000511c: add rsp, 0x00000000000004D8 ; ret  ;  (1 found)
0x0000116f: add rsp, 0x0000000000001088 ; ret  ;  (1 found)
0x00001ee9: add rsp, 0x10 ; ret  ;  (1 found)
0x00007b22: add rsp, 0x20 ; pop r12 ; pop rdi ; pop rsi ; ret  ;  (1 found)
0x00008b1a: add rsp, 0x20 ; pop r12 ; pop rdi ; pop rsi ; ret  ;  (1 found)
0x000026a6: add rsp, 0x20 ; pop r12 ; ret  ;  (1 found)
0x000028c7: add rsp, 0x20 ; pop r12 ; ret  ;  (1 found)
0x000028c8: add rsp, 0x20 ; pop r12 ; ret  ;  (1 found)
0x00003689: add rsp, 0x20 ; pop r12 ; ret  ;  (1 found)
0x0000368a: add rsp, 0x20 ; pop r12 ; ret  ;  (1 found)
0x000051db: add rsp, 0x20 ; pop r12 ; ret  ;  (1 found)
0x00005260: add rsp, 0x20 ; pop r12 ; ret  ;  (1 found)
0x000052e6: add rsp, 0x20 ; pop r12 ; ret  ;  (1 found)
0x0000381e: add rsp, 0x20 ; pop r13 ; ret  ;  (1 found)
0x0000381f: add rsp, 0x20 ; pop r13 ; ret  ;  (1 found)
0x00003fef: add rsp, 0x20 ; pop r14 ; pop r13 ; pop r12 ; ret  ;  (1 found)
0x00004b04: add rsp, 0x20 ; pop r14 ; pop r13 ; pop r12 ; ret  ;  (1 found)
0x00008795: add rsp, 0x20 ; pop r14 ; ret  ;  (1 found)
0x00008796: add rsp, 0x20 ; pop r14 ; ret  ;  (1 found)
0x00008d90: add rsp, 0x20 ; pop rbp ; ret  ;  (1 found)
0x00008db4: add rsp, 0x20 ; pop rbp ; ret  ;  (1 found)
0x00008dd2: add rsp, 0x20 ; pop rbp ; ret  ;  (1 found)
0x00008df0: add rsp, 0x20 ; pop rbp ; ret  ;  (1 found)
0x00008e0e: add rsp, 0x20 ; pop rbp ; ret  ;  (1 found)
0x00008e29: add rsp, 0x20 ; pop rbp ; ret  ;  (1 found)
0x00008e49: add rsp, 0x20 ; pop rbp ; ret  ;  (1 found)
0x00008e5f: add rsp, 0x20 ; pop rbp ; ret  ;  (1 found)
0x00008e8b: add rsp, 0x20 ; pop rbp ; ret  ;  (1 found)
0x00008ea6: add rsp, 0x20 ; pop rbp ; ret  ;  (1 found)
0x00008ece: add rsp, 0x20 ; pop rbp ; ret  ;  (1 found)
0x00008ef1: add rsp, 0x20 ; pop rbp ; ret  ;  (1 found)
0x00008f0c: add rsp, 0x20 ; pop rbp ; ret  ;  (1 found)
0x00008f27: add rsp, 0x20 ; pop rbp ; ret  ;  (1 found)
0x00008f40: add rsp, 0x20 ; pop rbp ; ret  ;  (1 found)
0x00008f5a: add rsp, 0x20 ; pop rbp ; ret  ;  (1 found)
0x00008f73: add rsp, 0x20 ; pop rbp ; ret  ;  (1 found)
0x00008f8e: add rsp, 0x20 ; pop rbp ; ret  ;  (1 found)
0x0000195b: add rsp, 0x20 ; pop rbx ; ret  ;  (1 found)
0x000024aa: add rsp, 0x20 ; pop rbx ; ret  ;  (1 found)
0x00002525: add rsp, 0x20 ; pop rbx ; ret  ;  (1 found)
0x00002557: add rsp, 0x20 ; pop rbx ; ret  ;  (1 found)
0x000026e1: add rsp, 0x20 ; pop rbx ; ret  ;  (1 found)
0x00002783: add rsp, 0x20 ; pop rbx ; ret  ;  (1 found)
0x000027cc: add rsp, 0x20 ; pop rbx ; ret  ;  (1 found)
0x00003614: add rsp, 0x20 ; pop rbx ; ret  ;  (1 found)
0x00003b59: add rsp, 0x20 ; pop rbx ; ret  ;  (1 found)
0x00003cee: add rsp, 0x20 ; pop rbx ; ret  ;  (1 found)
0x00003ea3: add rsp, 0x20 ; pop rbx ; ret  ;  (1 found)
0x00003ee9: add rsp, 0x20 ; pop rbx ; ret  ;  (1 found)
0x00005327: add rsp, 0x20 ; pop rbx ; ret  ;  (1 found)
0x0000549e: add rsp, 0x20 ; pop rbx ; ret  ;  (1 found)
0x00006169: add rsp, 0x20 ; pop rbx ; ret  ;  (1 found)
0x000061df: add rsp, 0x20 ; pop rbx ; ret  ;  (1 found)
0x00006a56: add rsp, 0x20 ; pop rbx ; ret  ;  (1 found)
0x00006af9: add rsp, 0x20 ; pop rbx ; ret  ;  (1 found)
0x00006bca: add rsp, 0x20 ; pop rbx ; ret  ;  (1 found)
0x0000764d: add rsp, 0x20 ; pop rbx ; ret  ;  (1 found)
0x0000767f: add rsp, 0x20 ; pop rbx ; ret  ;  (1 found)
0x00008458: add rsp, 0x20 ; pop rbx ; ret  ;  (1 found)
0x000084c6: add rsp, 0x20 ; pop rbx ; ret  ;  (1 found)
0x000085d0: add rsp, 0x20 ; pop rbx ; ret  ;  (1 found)
0x00008b55: add rsp, 0x20 ; pop rbx ; ret  ;  (1 found)
0x00001a05: add rsp, 0x20 ; pop rdi ; ret  ;  (1 found)
0x00001a3f: add rsp, 0x20 ; pop rdi ; ret  ;  (1 found)
0x00001af1: add rsp, 0x20 ; pop rdi ; ret  ;  (1 found)
0x0000281e: add rsp, 0x20 ; pop rdi ; ret  ;  (1 found)
0x0000281f: add rsp, 0x20 ; pop rdi ; ret  ;  (1 found)
0x00003720: add rsp, 0x20 ; pop rdi ; ret  ;  (1 found)
0x00003721: add rsp, 0x20 ; pop rdi ; ret  ;  (1 found)
0x00003c43: add rsp, 0x20 ; pop rdi ; ret  ;  (1 found)
0x00003cca: add rsp, 0x20 ; pop rdi ; ret  ;  (1 found)
0x00003e21: add rsp, 0x20 ; pop rdi ; ret  ;  (1 found)
0x00004046: add rsp, 0x20 ; pop rdi ; ret  ;  (1 found)
0x0000407e: add rsp, 0x20 ; pop rdi ; ret  ;  (1 found)
0x000040b4: add rsp, 0x20 ; pop rdi ; ret  ;  (1 found)
0x000045da: add rsp, 0x20 ; pop rdi ; ret  ;  (1 found)
0x000045db: add rsp, 0x20 ; pop rdi ; ret  ;  (1 found)
0x00004809: add rsp, 0x20 ; pop rdi ; ret  ;  (1 found)
0x0000480a: add rsp, 0x20 ; pop rdi ; ret  ;  (1 found)
0x000050d4: add rsp, 0x20 ; pop rdi ; ret  ;  (1 found)
0x000050d5: add rsp, 0x20 ; pop rdi ; ret  ;  (1 found)
0x0000544f: add rsp, 0x20 ; pop rdi ; ret  ;  (1 found)
0x000056a9: add rsp, 0x20 ; pop rdi ; ret  ;  (1 found)
0x000056aa: add rsp, 0x20 ; pop rdi ; ret  ;  (1 found)
0x00005954: add rsp, 0x20 ; pop rdi ; ret  ;  (1 found)
0x00006cd3: add rsp, 0x20 ; pop rdi ; ret  ;  (1 found)
0x000077f8: add rsp, 0x20 ; pop rdi ; ret  ;  (1 found)
0x00007894: add rsp, 0x20 ; pop rdi ; ret  ;  (1 found)
0x00007934: add rsp, 0x20 ; pop rdi ; ret  ;  (1 found)
0x000079e4: add rsp, 0x20 ; pop rdi ; ret  ;  (1 found)
0x00007a4c: add rsp, 0x20 ; pop rdi ; ret  ;  (1 found)
0x0000867c: add rsp, 0x20 ; pop rdi ; ret  ;  (1 found)
0x00008a5a: add rsp, 0x20 ; pop rdi ; ret  ;  (1 found)
0x000016bc: add rsp, 0x28 ; pop rdi ; pop rbx ; ret  ;  (1 found)
0x000011f4: add rsp, 0x28 ; ret  ;  (1 found)
0x000035af: add rsp, 0x28 ; ret  ;  (1 found)
0x000035cf: add rsp, 0x28 ; ret  ;  (1 found)
0x00000621: add rsp, 0x28 ; ret  ;  (1 found)
0x0000388a: add rsp, 0x28 ; ret  ;  (1 found)
0x000038a8: add rsp, 0x28 ; ret  ;  (1 found)
0x0000400e: add rsp, 0x28 ; ret  ;  (1 found)
0x0000417c: add rsp, 0x28 ; ret  ;  (1 found)
0x0000444e: add rsp, 0x28 ; ret  ;  (1 found)
0x00004620: add rsp, 0x28 ; ret  ;  (1 found)
0x0000463b: add rsp, 0x28 ; ret  ;  (1 found)
0x00005021: add rsp, 0x28 ; ret  ;  (1 found)
0x000055f6: add rsp, 0x28 ; ret  ;  (1 found)
0x0000561d: add rsp, 0x28 ; ret  ;  (1 found)
0x00005e67: add rsp, 0x28 ; ret  ;  (1 found)
0x000067f1: add rsp, 0x28 ; ret  ;  (1 found)
0x00006c3f: add rsp, 0x28 ; ret  ;  (1 found)
0x000086f3: add rsp, 0x28 ; ret  ;  (1 found)
0x00008bb5: add rsp, 0x28 ; ret  ;  (1 found)
0x00005e3b: add rsp, 0x30 ; pop r13 ; ret  ;  (1 found)
0x00005585: add rsp, 0x30 ; pop r15 ; pop r13 ; pop r12 ; ret  ;  (1 found)
0x00002060: add rsp, 0x30 ; pop rdi ; ret  ;  (1 found)
0x00002061: add rsp, 0x30 ; pop rdi ; ret  ;  (1 found)
0x00003515: add rsp, 0x30 ; pop rdi ; ret  ;  (1 found)
0x0000490b: add rsp, 0x30 ; pop rdi ; ret  ;  (1 found)
0x00004c00: add rsp, 0x30 ; pop rdi ; ret  ;  (1 found)
0x000053d3: add rsp, 0x30 ; pop rdi ; ret  ;  (1 found)
0x000053d4: add rsp, 0x30 ; pop rdi ; ret  ;  (1 found)
0x00003545: add rsp, 0x38 ; ret  ;  (1 found)
0x0000059c: add rsp, 0x38 ; ret  ;  (1 found)
0x000006bb: add rsp, 0x38 ; ret  ;  (1 found)
0x0000644b: add rsp, 0x38 ; ret  ;  (1 found)
0x0000881b: add rsp, 0x38 ; ret  ;  (1 found)
0x0000881c: add rsp, 0x38 ; ret  ;  (1 found)
0x00004cf5: add rsp, 0x40 ; pop r12 ; ret  ;  (1 found)
0x000059e6: add rsp, 0x40 ; pop rbx ; ret  ;  (1 found)
0x00006227: add rsp, 0x40 ; pop rbx ; ret  ;  (1 found)
0x00006271: add rsp, 0x40 ; pop rbx ; ret  ;  (1 found)
0x0000772d: add rsp, 0x40 ; pop rdi ; ret  ;  (1 found)
0x00000b24: add rsp, 0x48 ; ret  ;  (1 found)
0x00008b92: add rsp, 0x48 ; ret  ;  (1 found)
0x00008879: add rsp, 0x50 ; pop rbp ; ret  ;  (1 found)
0x00001d80: add rsp, 0x50 ; pop rdi ; pop rbx ; pop rbp ; ret  ;  (1 found)
0x00000548: add rsp, 0x58 ; ret  ;  (1 found)
0x00006340: add rsp, 0x60 ; pop rdi ; pop rsi ; pop rbp ; ret  ;  (1 found)
0x00008068: add rsp, 0x60 ; pop rdi ; ret  ;  (1 found)
0x00001ee7: and al, 0x08 ; add rsp, 0x10 ; ret  ;  (1 found)
0x00006442: and al, 0x20 ; add al, ch ; sub eax, 0x48FFFFFE ; add esp, 0x38 ; ret  ;  (1 found)
0x00006443: and al, 0x20 ; add al, ch ; sub eax, 0x48FFFFFE ; add esp, 0x38 ; ret  ;  (1 found)
0x00000599: and al, 0x20 ; add rsp, 0x38 ; ret  ;  (1 found)
0x0000059a: and al, 0x20 ; add rsp, 0x38 ; ret  ;  (1 found)
0x00002ef9: and al, 0x20 ; call rax ;  (1 found)
0x00003502: and al, 0x20 ; call rax ;  (1 found)
0x00006986: and al, 0x20 ; lea edx, dword [r9-0x0B] ; mov rcx, rax ; call r12 ;  (1 found)
0x00006987: and al, 0x20 ; lea edx, dword [r9-0x0B] ; mov rcx, rax ; call r12 ;  (1 found)
0x00000b62: and al, 0x20 ; push rax ; ret  ;  (1 found)
0x00000b63: and al, 0x20 ; push rax ; ret  ;  (1 found)
0x00002eec: and al, 0x28 ; lea rcx, qword [rbp-0x48] ; mov rdx, rbx ; mov dword [rsp+0x20], r15d ; call rax ;  (1 found)
0x00002eed: and al, 0x28 ; lea rcx, qword [rbp-0x48] ; mov rdx, rbx ; mov dword [rsp+0x20], r15d ; call rax ;  (1 found)
0x000051d9: and al, 0x30 ; add rsp, 0x20 ; pop r12 ; ret  ;  (1 found)
0x0000525e: and al, 0x30 ; add rsp, 0x20 ; pop r12 ; ret  ;  (1 found)
0x000052e4: and al, 0x30 ; add rsp, 0x20 ; pop r12 ; ret  ;  (1 found)
0x00001a03: and al, 0x30 ; add rsp, 0x20 ; pop rdi ; ret  ;  (1 found)
0x00001a3d: and al, 0x30 ; add rsp, 0x20 ; pop rdi ; ret  ;  (1 found)
0x00001aef: and al, 0x30 ; add rsp, 0x20 ; pop rdi ; ret  ;  (1 found)
0x00003c41: and al, 0x30 ; add rsp, 0x20 ; pop rdi ; ret  ;  (1 found)
0x00003cc8: and al, 0x30 ; add rsp, 0x20 ; pop rdi ; ret  ;  (1 found)
0x00004044: and al, 0x30 ; add rsp, 0x20 ; pop rdi ; ret  ;  (1 found)
0x0000407c: and al, 0x30 ; add rsp, 0x20 ; pop rdi ; ret  ;  (1 found)
0x000040b2: and al, 0x30 ; add rsp, 0x20 ; pop rdi ; ret  ;  (1 found)
0x0000544d: and al, 0x30 ; add rsp, 0x20 ; pop rdi ; ret  ;  (1 found)
0x00006cd1: and al, 0x30 ; add rsp, 0x20 ; pop rdi ; ret  ;  (1 found)
0x00007892: and al, 0x30 ; add rsp, 0x20 ; pop rdi ; ret  ;  (1 found)
0x000079e2: and al, 0x30 ; add rsp, 0x20 ; pop rdi ; ret  ;  (1 found)
0x00008a58: and al, 0x30 ; add rsp, 0x20 ; pop rdi ; ret  ;  (1 found)
0x0000621d: and al, 0x30 ; and dword [rcx+0x000000C8], 0xFFFFFFFD ; add rsp, 0x40 ; pop rbx ; ret  ;  (1 found)
0x0000621e: and al, 0x30 ; and dword [rcx+0x000000C8], 0xFFFFFFFD ; add rsp, 0x40 ; pop rbx ; ret  ;  (1 found)
0x00006267: and al, 0x30 ; and dword [rcx+0x000000C8], 0xFFFFFFFD ; add rsp, 0x40 ; pop rbx ; ret  ;  (1 found)
0x00006268: and al, 0x30 ; and dword [rcx+0x000000C8], 0xFFFFFFFD ; add rsp, 0x40 ; pop rbx ; ret  ;  (1 found)
0x00008675: and al, 0x30 ; mov rbp, qword [rsp+0x38] ; add rsp, 0x20 ; pop rdi ; ret  ;  (1 found)
0x0000269f: and al, 0x30 ; mov rdi, qword [rsp+0x38] ; add rsp, 0x20 ; pop r12 ; ret  ;  (1 found)
0x00002254: and al, 0x30 ; mov rdx, r13 ; add rax, r15 ; call rax ;  (1 found)
0x00002255: and al, 0x30 ; mov rdx, r13 ; add rax, r15 ; call rax ;  (1 found)
0x000077f1: and al, 0x30 ; mov rsi, qword [rsp+0x38] ; add rsp, 0x20 ; pop rdi ; ret  ;  (1 found)
0x0000792d: and al, 0x30 ; mov rsi, qword [rsp+0x38] ; add rsp, 0x20 ; pop rdi ; ret  ;  (1 found)
0x000026a4: and al, 0x38 ; add rsp, 0x20 ; pop r12 ; ret  ;  (1 found)
0x00003e1f: and al, 0x38 ; add rsp, 0x20 ; pop rdi ; ret  ;  (1 found)
0x00005952: and al, 0x38 ; add rsp, 0x20 ; pop rdi ; ret  ;  (1 found)
0x000077f6: and al, 0x38 ; add rsp, 0x20 ; pop rdi ; ret  ;  (1 found)
0x00007932: and al, 0x38 ; add rsp, 0x20 ; pop rdi ; ret  ;  (1 found)
0x00007a4a: and al, 0x38 ; add rsp, 0x20 ; pop rdi ; ret  ;  (1 found)
0x0000867a: and al, 0x38 ; add rsp, 0x20 ; pop rdi ; ret  ;  (1 found)
0x00006981: and al, 0x38 ; mov qword [rsp+0x20], rcx ; lea edx, dword [r9-0x0B] ; mov rcx, rax ; call r12 ;  (1 found)
0x00006982: and al, 0x38 ; mov qword [rsp+0x20], rcx ; lea edx, dword [r9-0x0B] ; mov rcx, rax ; call r12 ;  (1 found)
0x00006ccb: and al, 0x38 ; mov rbx, qword [rsp+0x30] ; add rsp, 0x20 ; pop rdi ; ret  ;  (1 found)
0x00006ccc: and al, 0x38 ; mov rbx, qword [rsp+0x30] ; add rsp, 0x20 ; pop rdi ; ret  ;  (1 found)
0x00003683: and al, 0x38 ; mov rdi, qword [rsp+0x40] ; add rsp, 0x20 ; pop r12 ; ret  ;  (1 found)
0x00003818: and al, 0x38 ; mov rdi, qword [rsp+0x40] ; add rsp, 0x20 ; pop r13 ; ret  ;  (1 found)
0x00002818: and al, 0x38 ; mov rsi, qword [rsp+0x40] ; add rsp, 0x20 ; pop rdi ; ret  ;  (1 found)
0x0000371a: and al, 0x38 ; mov rsi, qword [rsp+0x40] ; add rsp, 0x20 ; pop rdi ; ret  ;  (1 found)
0x00004803: and al, 0x38 ; mov rsi, qword [rsp+0x40] ; add rsp, 0x20 ; pop rdi ; ret  ;  (1 found)
0x000056a3: and al, 0x38 ; mov rsi, qword [rsp+0x40] ; add rsp, 0x20 ; pop rdi ; ret  ;  (1 found)
0x00003688: and al, 0x40 ; add rsp, 0x20 ; pop r12 ; ret  ;  (1 found)
0x0000381d: and al, 0x40 ; add rsp, 0x20 ; pop r13 ; ret  ;  (1 found)
0x0000281d: and al, 0x40 ; add rsp, 0x20 ; pop rdi ; ret  ;  (1 found)
0x0000371f: and al, 0x40 ; add rsp, 0x20 ; pop rdi ; ret  ;  (1 found)
0x00004808: and al, 0x40 ; add rsp, 0x20 ; pop rdi ; ret  ;  (1 found)
0x000050d3: and al, 0x40 ; add rsp, 0x20 ; pop rdi ; ret  ;  (1 found)
0x000056a8: and al, 0x40 ; add rsp, 0x20 ; pop rdi ; ret  ;  (1 found)
0x00008819: and al, 0x40 ; add rsp, 0x38 ; ret  ;  (1 found)
0x0000881a: and al, 0x40 ; add rsp, 0x38 ; ret  ;  (1 found)
0x0000878f: and al, 0x40 ; mov r12, qword [rsp+0x48] ; add rsp, 0x20 ; pop r14 ; ret  ;  (1 found)
0x000028c1: and al, 0x40 ; mov rdi, qword [rsp+0x48] ; add rsp, 0x20 ; pop r12 ; ret  ;  (1 found)
0x000045d4: and al, 0x40 ; mov rsi, qword [rsp+0x48] ; add rsp, 0x20 ; pop rdi ; ret  ;  (1 found)
0x000053cd: and al, 0x40 ; mov rsi, qword [rsp+0x48] ; add rsp, 0x30 ; pop rdi ; ret  ;  (1 found)
0x000028c6: and al, 0x48 ; add rsp, 0x20 ; pop r12 ; ret  ;  (1 found)
0x00008793: and al, 0x48 ; add rsp, 0x20 ; pop r14 ; ret  ;  (1 found)
0x00008794: and al, 0x48 ; add rsp, 0x20 ; pop r14 ; ret  ;  (1 found)
0x000045d9: and al, 0x48 ; add rsp, 0x20 ; pop rdi ; ret  ;  (1 found)
0x0000205f: and al, 0x48 ; add rsp, 0x30 ; pop rdi ; ret  ;  (1 found)
0x000053d2: and al, 0x48 ; add rsp, 0x30 ; pop rdi ; ret  ;  (1 found)
0x0000238b: and al, 0x48 ; mov r8d, dword [rbx-0x04] ; add r8, r15 ; call r8 ;  (1 found)
0x0000238c: and al, 0x48 ; mov r8d, dword [rbx-0x04] ; add r8, r15 ; call r8 ;  (1 found)
0x0000350e: and al, 0x48 ; mov rsi, qword [rsp+0x50] ; add rsp, 0x30 ; pop rdi ; ret  ;  (1 found)
0x00004904: and al, 0x48 ; mov rsi, qword [rsp+0x50] ; add rsp, 0x30 ; pop rdi ; ret  ;  (1 found)
0x00001ee3: and al, 0x4C ; mov ebx, dword [rsp+0x08] ; add rsp, 0x10 ; ret  ;  (1 found)
0x00003513: and al, 0x50 ; add rsp, 0x30 ; pop rdi ; ret  ;  (1 found)
0x00004909: and al, 0x50 ; add rsp, 0x30 ; pop rdi ; ret  ;  (1 found)
0x00005e34: and al, 0x50 ; mov r12, qword [rsp+0x58] ; add rsp, 0x30 ; pop r13 ; ret  ;  (1 found)
0x00004bf9: and al, 0x50 ; mov rsi, qword [rsp+0x58] ; add rsp, 0x30 ; pop rdi ; ret  ;  (1 found)
0x00007726: and al, 0x50 ; mov rsi, qword [rsp+0x58] ; add rsp, 0x40 ; pop rdi ; ret  ;  (1 found)
0x00005e38: and al, 0x58 ; add rsp, 0x30 ; pop r13 ; ret  ;  (1 found)
0x00005e39: and al, 0x58 ; add rsp, 0x30 ; pop r13 ; ret  ;  (1 found)
0x00004bfe: and al, 0x58 ; add rsp, 0x30 ; pop rdi ; ret  ;  (1 found)
0x0000772b: and al, 0x58 ; add rsp, 0x40 ; pop rdi ; ret  ;  (1 found)
0x000034fd: and al, 0x60 ; mov qword [rsp+0x20], r10 ; call rax ;  (1 found)
0x00004cee: and al, 0x60 ; mov rdi, qword [rsp+0x68] ; add rsp, 0x40 ; pop r12 ; ret  ;  (1 found)
0x00004cf3: and al, 0x68 ; add rsp, 0x40 ; pop r12 ; ret  ;  (1 found)
0x00008872: and al, 0x70 ; mov r12, qword [rsp+0x78] ; add rsp, 0x50 ; pop rbp ; ret  ;  (1 found)
0x00008061: and al, 0x70 ; mov rsi, qword [rsp+0x78] ; add rsp, 0x60 ; pop rdi ; ret  ;  (1 found)
0x0000dbb0: and al, 0x76 ; add byte [rax], al ; xchg eax, esp ; retn 0x0000 ;  (1 found)
0x00008876: and al, 0x78 ; add rsp, 0x50 ; pop rbp ; ret  ;  (1 found)
0x00008877: and al, 0x78 ; add rsp, 0x50 ; pop rbp ; ret  ;  (1 found)
0x00008066: and al, 0x78 ; add rsp, 0x60 ; pop rdi ; ret  ;  (1 found)
0x000053b7: and al, 0xF3 ; add bh, bh ; ret  ;  (1 found)
0x0000d6e9: and al, byte [rax] ; add byte [rbp+rdi*4+0x22180000], bl ; add byte [rax], al ; ret  ;  (1 found)
0x00007e63: and al, ch ; ret  ;  (1 found)
0x00008b84: and bh, bh ; adc eax, 0x00000A8D ; mov qword [0x000000000000DA70], rax ; add rsp, 0x48 ; ret  ;  (1 found)
0x00007bc3: and bh, bh ; retn 0x15FF ;  (1 found)
0x00001480: and byte [rax-0x01], cl ; retn 0xFF49 ;  (1 found)
0x00007b25: and byte [rcx+0x5C], al ; pop rdi ; pop rsi ; ret  ;  (1 found)
0x00008b1d: and byte [rcx+0x5C], al ; pop rdi ; pop rsi ; ret  ;  (1 found)
0x000026a9: and byte [rcx+0x5C], al ; ret  ;  (1 found)
0x000028cb: and byte [rcx+0x5C], al ; ret  ;  (1 found)
0x0000368d: and byte [rcx+0x5C], al ; ret  ;  (1 found)
0x000051de: and byte [rcx+0x5C], al ; ret  ;  (1 found)
0x00005263: and byte [rcx+0x5C], al ; ret  ;  (1 found)
0x000052e9: and byte [rcx+0x5C], al ; ret  ;  (1 found)
0x00003822: and byte [rcx+0x5D], al ; ret  ;  (1 found)
0x00003ff2: and byte [rcx+0x5E], al ; pop r13 ; pop r12 ; ret  ;  (1 found)
0x00004b07: and byte [rcx+0x5E], al ; pop r13 ; pop r12 ; ret  ;  (1 found)
0x00008799: and byte [rcx+0x5E], al ; ret  ;  (1 found)
0x00005ee3: and byte [rcx-0x01], cl ; enter 0xCC75, 0x48 ; mov eax, dword [rcx+0x00000158] ; lock inc dword [rax+0x00000160] ; ret  ;  (1 found)
0x00006988: and byte [rcx-0x73], al ; push rcx ; cmc  ; mov rcx, rax ; call r12 ;  (1 found)
0x00000593: and byte [rcx], al ; add byte [rax], al ; add byte [rbx+0x48202444], cl ; add esp, 0x38 ; ret  ;  (1 found)
0x000050d8: and byte [rdi-0x3D], bl ; int3  ; and dword [0x000000000000EAD0], 0x00000000 ; ret  ;  (1 found)
0x000050dc: and dword [0x000000000000EAD0], 0x00000000 ; ret  ;  (1 found)
0x000059dd: and dword [rax+0x000000C8], 0xFFFFFFFD ; mov eax, ebx ; add rsp, 0x40 ; pop rbx ; ret  ;  (1 found)
0x000046f4: and dword [rax+0x48000000], 0xFFFFFF83 ; retn 0x4C10 ;  (1 found)
0x00007646: and dword [rbx+0x08], 0x00000000 ; mov qword [rbx], rax ; add rsp, 0x20 ; pop rbx ; ret  ;  (1 found)
0x000026dd: and dword [rbx+0x10], 0x00000000 ; add rsp, 0x20 ; pop rbx ; ret  ;  (1 found)
0x000034f9: and dword [rbx+rcx*4+0x54], ecx ; and al, 0x60 ; mov qword [rsp+0x20], r10 ; call rax ;  (1 found)
0x000026d9: and dword [rbx], 0x00000000 ; and qword [rbx+0x10], 0x0000000000000000 ; add rsp, 0x20 ; pop rbx ; ret  ;  (1 found)
0x00003ee4: and dword [rbx], 0x00000000 ; xor eax, eax ; add rsp, 0x20 ; pop rbx ; ret  ;  (1 found)
0x00006220: and dword [rcx+0x000000C8], 0xFFFFFFFD ; add rsp, 0x40 ; pop rbx ; ret  ;  (1 found)
0x0000626a: and dword [rcx+0x000000C8], 0xFFFFFFFD ; add rsp, 0x40 ; pop rbx ; ret  ;  (1 found)
0x000026da: and eax, dword [rax] ; and qword [rbx+0x10], 0x0000000000000000 ; add rsp, 0x20 ; pop rbx ; ret  ;  (1 found)
0x00003ee5: and eax, dword [rax] ; xor eax, eax ; add rsp, 0x20 ; pop rbx ; ret  ;  (1 found)
0x000026dc: and qword [rbx+0x10], 0x0000000000000000 ; add rsp, 0x20 ; pop rbx ; ret  ;  (1 found)
0x000026d8: and qword [rbx], 0x0000000000000000 ; and qword [rbx+0x10], 0x0000000000000000 ; add rsp, 0x20 ; pop rbx ; ret  ;  (1 found)
0x00003ee3: and qword [rbx], 0x0000000000000000 ; xor eax, eax ; add rsp, 0x20 ; pop rbx ; ret  ;  (1 found)
0x00008d4c: bswap ecx ; cmp rax, rcx ; sbb eax, eax ; sbb eax, 0xFFFFFFFF ; ret  ;  (1 found)
0x00008d4b: bswap rcx ; cmp rax, rcx ; sbb eax, eax ; sbb eax, 0xFFFFFFFF ; ret  ;  (1 found)
0x00002520: bts dword [rbx+0x18], 0x0F ; add rsp, 0x20 ; pop rbx ; ret  ;  (1 found)
0x00002552: bts dword [rbx+0x18], 0x0F ; add rsp, 0x20 ; pop rbx ; ret  ;  (1 found)
0x00008740: call qword [rax+0x0C337C83] ;  (1 found)
0x00003f10: call qword [rax+0x0F0D8B48] ;  (1 found)
0x00008d8e: call qword [rax+0x20C48348] ;  (1 found)
0x00008db2: call qword [rax+0x20C48348] ;  (1 found)
0x00008dd0: call qword [rax+0x20C48348] ;  (1 found)
0x00008e0c: call qword [rax+0x20C48348] ;  (1 found)
0x00008e27: call qword [rax+0x20C48348] ;  (1 found)
0x00008e47: call qword [rax+0x20C48348] ;  (1 found)
0x00008e5d: call qword [rax+0x20C48348] ;  (1 found)
0x00008ea4: call qword [rax+0x20C48348] ;  (1 found)
0x00008ecc: call qword [rax+0x20C48348] ;  (1 found)
0x00008eef: call qword [rax+0x20C48348] ;  (1 found)
0x00008f0a: call qword [rax+0x20C48348] ;  (1 found)
0x00008f25: call qword [rax+0x20C48348] ;  (1 found)
0x00008f3e: call qword [rax+0x20C48348] ;  (1 found)
0x00008f58: call qword [rax+0x20C48348] ;  (1 found)
0x00008f71: call qword [rax+0x20C48348] ;  (1 found)
0x00008f8c: call qword [rax+0x20C48348] ;  (1 found)
0x00003a17: call qword [rax+0x7408FB83] ;  (1 found)
0x00001c33: call qword [rax+0x74E48545] ;  (1 found)
0x00008ac9: call qword [rax-0x0BFB74B7] ;  (1 found)
0x00007a31: call qword [rax-0x173474B8] ;  (1 found)
0x00005504: call qword [rax-0x2CFA74B8] ;  (1 found)
0x00003dd1: call qword [rax-0x3F4474B8] ;  (1 found)
0x00003c0b: call qword [rax-0x3F4476B8] ;  (1 found)
0x000061ad: call qword [rax-0x3F7472B8] ;  (1 found)
0x000058dc: call qword [rax-0x476074B8] ;  (1 found)
0x00003d92: call qword [rax-0x477474B8] ;  (1 found)
0x00003bec: call qword [rax-0x477C74B8] ;  (1 found)
0x00002058: call qword [rax-0x74B73875] ;  (1 found)
0x00005d42: call qword [rax-0x76FBBC75] ;  (1 found)
0x00005348: call qword [rax-0x76FCA073] ;  (1 found)
0x000054cb: call qword [rax-0x7CBE24CD] ;  (1 found)
0x000071d5: call qword [rbx] ;  (1 found)
0x00006990: call r12 ;  (1 found)
0x00003ac3: call r13 ;  (1 found)
0x00003aca: call r13 ;  (1 found)
0x00002395: call r8 ;  (1 found)
0x000047d8: call r8 ;  (1 found)
0x000047ea: call r8 ;  (1 found)
0x00001959: call rax ;  (1 found)
0x000019f5: call rax ;  (1 found)
0x00001ab6: call rax ;  (1 found)
0x0000225d: call rax ;  (1 found)
0x00002396: call rax ;  (1 found)
0x00002efb: call rax ;  (1 found)
0x00002f21: call rax ;  (1 found)
0x00002f41: call rax ;  (1 found)
0x00003504: call rax ;  (1 found)
0x00003b4a: call rax ;  (1 found)
0x00004036: call rax ;  (1 found)
0x0000406e: call rax ;  (1 found)
0x000047d9: call rax ;  (1 found)
0x000047eb: call rax ;  (1 found)
0x000069bb: call rax ;  (1 found)
0x000069df: call rax ;  (1 found)
0x00006a02: call rax ;  (1 found)
0x00003ac4: call rbp ;  (1 found)
0x00003acb: call rbp ;  (1 found)
0x00001bc3: call rbx ;  (1 found)
0x00001a2f: call rcx ;  (1 found)
0x00003881: call rcx ;  (1 found)
0x0000696d: call rsi ;  (1 found)
0x00006991: call rsp ;  (1 found)
0x000041a2: cdqe  ; add rax, rax ; mov rax, qword [r8+rax*8+0x08] ; ret  ;  (1 found)
0x0000358b: cdqe  ; mov eax, dword [r9+rax*8+0x04] ; ret  ;  (1 found)
0x0000356e: clc  ; adc dword [rdi+0x06], esi ; mov eax, 0x0000000D ; ret  ;  (1 found)
0x00001f3d: clc  ; add byte [rax], al ; add byte [rdi], cl ; xchg eax, ebp ; ret  ;  (1 found)
0x00006b90: clc  ; dec rax ; ret  ;  (1 found)
0x0000dc90: clc  ; mov dword [rax], eax ; add byte [rsi-0x4FFFFF76], cl ; ret  ;  (1 found)
0x00001926: clc  ; ret  ;  (1 found)
0x0000da94: clc  ; ret  ;  (1 found)
0x0000dcc8: clc  ; ret  ;  (1 found)
0x00002390: cld  ; add r8, r15 ; call r8 ;  (1 found)
0x00002391: cld  ; add r8, r15 ; call r8 ;  (1 found)
0x0000190e: cld  ; ret  ;  (1 found)
0x0000191a: cli  ; ret  ;  (1 found)
0x00003b17: cmc  ; cmpsq  ; add byte [rax], al ; ret  ;  (1 found)
0x00003b1f: cmc  ; cmpsq  ; add byte [rax], al ; ret  ;  (1 found)
0x00003b27: cmc  ; cmpsq  ; add byte [rax], al ; ret  ;  (1 found)
0x0000698c: cmc  ; mov rcx, rax ; call r12 ;  (1 found)
0x00003587: cmovbe eax, eax ; ret  ;  (1 found)
0x00003586: cmovbe eax, r8d ; ret  ;  (1 found)
0x000047c4: cmove eax, edx ; mov dword [rbx+0x000000B0], eax ; mov edx, dword [rbx+0x000000B0] ; mov ecx, 0x00000008 ; call r8 ;  (1 found)
0x00008c3a: cmovs ebx, dword [rbx] ; ror byte [rax-0x7D], 0xFFFFFFD8 ; inc ebx ; xor eax, eax ; ret  ;  (1 found)
0x00005018: cmp al, 0x45 ; add byte [rax], al ; mov eax, 0x00000001 ; add rsp, 0x28 ; ret  ;  (1 found)
0x00008eec: cmp byte [rax+0x4890FFFF], ch ; add esp, 0x20 ; pop rbp ; ret  ;  (1 found)
0x00006983: cmp byte [rax-0x77], cl ; and al, 0x20 ; lea edx, dword [r9-0x0B] ; mov rcx, rax ; call r12 ;  (1 found)
0x000016d2: cmp dword [0x000000000000DAA0], ecx ; sete al ; ret  ;  (1 found)
0x000040e7: cmp dword [rcx+0x18], edx ; sete al ; rep ret  ;  (1 found)
0x000086eb: cmp eax, 0x48FFFFAE ; or eax, 0xFFFFFFFF ; add rsp, 0x28 ; ret  ;  (1 found)
0x00008d4f: cmp eax, ecx ; sbb eax, eax ; sbb eax, 0xFFFFFFFF ; ret  ;  (1 found)
0x00002f44: cmp ebp, dword [0x000000000F4137BF] ; mov edx, 0xFF4808ED ; ret  ;  (1 found)
0x00003583: cmp ecx, 0x0E ; cmovbe eax, r8d ; ret  ;  (1 found)
0x000016d1: cmp qword [0x000000000000DAA0], rcx ; sete al ; ret  ;  (1 found)
0x00008d4e: cmp rax, rcx ; sbb eax, eax ; sbb eax, 0xFFFFFFFF ; ret  ;  (1 found)
0x000040e6: cmp word [rcx+0x18], dx ; sete al ; rep ret  ;  (1 found)
0x00003b18: cmpsq  ; add byte [rax], al ; ret  ;  (1 found)
0x00003b20: cmpsq  ; add byte [rax], al ; ret  ;  (1 found)
0x00003b28: cmpsq  ; add byte [rax], al ; ret  ;  (1 found)
0x000041a3: cwde  ; add rax, rax ; mov rax, qword [r8+rax*8+0x08] ; ret  ;  (1 found)
0x0000358c: cwde  ; mov eax, dword [r9+rax*8+0x04] ; ret  ;  (1 found)
0x000089f3: dec dword [rax+0x3B] ; ret  ;  (1 found)
0x00003cea: dec dword [rax-0x75] ; ret  ;  (1 found)
0x00003fdc: dec dword [rax-0x75] ; ret  ;  (1 found)
0x0000594b: dec dword [rax-0x75] ; ret  ;  (1 found)
0x00006161: dec dword [rax-0x75] ; ret  ;  (1 found)
0x000061db: dec dword [rax-0x75] ; ret  ;  (1 found)
0x00004f8d: dec dword [rax-0x7D] ; ret  ;  (1 found)
0x00005340: dec dword [rbp-0x2017FEB1] ; in al, 0xFF ; call qword [rax-0x76FCA073] ;  (1 found)
0x000053ad: dec dword [rbx+rcx*4+0x1D] ; sub ebx, dword [rcx-0x7CB70000] ; and al, 0xF3 ; add bh, bh ; ret  ;  (1 found)
0x00001612: dec dword [rcx-0x75] ; ret  ;  (1 found)
0x000017eb: dec dword [rcx-0x75] ; ret  ;  (1 found)
0x0000400c: dec eax ; add rsp, 0x28 ; ret  ;  (1 found)
0x00006b92: dec eax ; ret  ;  (1 found)
0x00003331: dec esp ; int3  ; mov qword [0x000000000000E0A8], rcx ; ret  ;  (1 found)
0x0000461c: dec esp ; xor eax, eax ; add rsp, 0x28 ; ret  ;  (1 found)
0x00006b91: dec rax ; ret  ;  (1 found)
0x000018f5: div byte [rbp-0x47] ; lea rax, qword [rcx+rax-0x01] ; ret  ;  (1 found)
0x00008c72: div byte [rbp-0x75] ; xor eax, eax ; ret  ;  (1 found)
0x000012ee: div byte [rbp-0x78] ; xor rax, rax ; ret  ;  (1 found)
0x00006222: enter 0x0000, 0x00 ; std  ; add rsp, 0x40 ; pop rbx ; ret  ;  (1 found)
0x0000626c: enter 0x0000, 0x00 ; std  ; add rsp, 0x40 ; pop rbx ; ret  ;  (1 found)
0x00003a8c: enter 0x0008, 0xFF ; retn 0x5489 ;  (1 found)
0x00003a8d: enter 0x0008, 0xFF ; retn 0x5489 ;  (1 found)
0x00000544: enter 0x000C, 0x00 ; add rsp, 0x58 ; ret  ;  (1 found)
0x0000af38: enter 0x002D, 0x00 ; add dword [rax], eax ; add byte [rax], al ; ret  ;  (1 found)
0x000016d4: enter 0x00C3, 0x00 ; sete al ; ret  ;  (1 found)
0x000066c8: enter 0x0188, 0x75 ; mov rax, r11 ; ret  ;  (1 found)
0x000013bc: enter 0x0774, 0xF6 ; retn 0x7507 ;  (1 found)
0x00001712: enter 0x0774, 0xF6 ; retn 0x7507 ;  (1 found)
0x00008d4a: enter 0x0F48, 0xC9 ; cmp rax, rcx ; sbb eax, eax ; sbb eax, 0xFFFFFFFF ; ret  ;  (1 found)
0x00005f86: enter 0xCA75, 0x48 ; mov eax, dword [rcx+0x00000158] ; lock add dword [rax+0x00000160], r9d ; mov rax, rcx ; ret  ;  (1 found)
0x00005ee6: enter 0xCC75, 0x48 ; mov eax, dword [rcx+0x00000158] ; lock inc dword [rax+0x00000160] ; ret  ;  (1 found)
0x00005616: enter 0xEBFF, 0x03 ; mov eax, dword [rcx+0x1C] ; add rsp, 0x28 ; ret  ;  (1 found)
0x00008ccc: enter 0xF175, 0x48 ; xor eax, eax ; ret  ;  (1 found)
0x0000652a: enter 0xF375, 0x49 ; mov eax, ebx ; ret  ;  (1 found)
0x00002419: fadd dword [rax] ; add al, ch ; ret  ;  (1 found)
0x00003ab8: fbstp  [rbp+0x0D] ; mov edx, dword [rsi+0x000000B0] ; mov ecx, edi ; call r13 ;  (1 found)
0x000019fd: fbstp  [rdx-0x13] ; mov rbx, qword [rsp+0x30] ; add rsp, 0x20 ; pop rdi ; ret  ;  (1 found)
0x0000403e: fbstp  [rdx-0x13] ; mov rbx, qword [rsp+0x30] ; add rsp, 0x20 ; pop rdi ; ret  ;  (1 found)
0x00004076: fbstp  [rdx-0x13] ; mov rbx, qword [rsp+0x30] ; add rsp, 0x20 ; pop rdi ; ret  ;  (1 found)
0x00001a37: fbstp  [rdx-0x17] ; mov rbx, qword [rsp+0x30] ; add rsp, 0x20 ; pop rdi ; ret  ;  (1 found)
0x00004007: fcomp dword [rbx] ; sal bh, 0xFFFFFFD8 ; dec eax ; add rsp, 0x28 ; ret  ;  (1 found)
0x0000daa4: fcomp qword [rdi+0x00] ; add byte [rbp+0x60], dl ; add byte [rax], al ; push rax ; retn 0x0000 ;  (1 found)
0x00003fda: fcos  ; dec dword [rax-0x75] ; ret  ;  (1 found)
0x0000dbf4: fdivr qword [rax+0x00] ; add byte [rdi-0x4FFFFF87], bh ; retn 0x0000 ;  (1 found)
0x000012c3: fdivr st0, st7 ; ret  ;  (1 found)
0x00008c40: fdivr st0, st7 ; ret  ;  (1 found)
0x00008c7d: fdivr st0, st7 ; ret  ;  (1 found)
0x00008cd6: fdivr st0, st7 ; ret  ;  (1 found)
0x00008d54: fdivr st0, st7 ; ret  ;  (1 found)
0x00005da0: fiadd word [rax] ; add bh, bh ; retn 0xE1EB ;  (1 found)
0x00007d3f: fld qword [rax] ; add byte [rax-0x7D], cl ; ret  ;  (1 found)
0x00007f5e: fld qword [rax] ; add byte [rax-0x7D], cl ; ret  ;  (1 found)
0x00001e66: fmul dword [rax+0x0F] ; ret  ;  (1 found)
0x00003fd7: fucomi st0, st0 ; stosd  ; fcos  ; dec dword [rax-0x75] ; ret  ;  (1 found)
0x00006b8a: hlt  ; sub rax, rcx ; sar rax, 1  ; dec rax ; ret  ;  (1 found)
0x0000332f: idiv bh ; dec esp ; int3  ; mov qword [0x000000000000E0A8], rcx ; ret  ;  (1 found)
0x0000db35: imul eax, dword [rax], 0x00 ; adc eax, 0x5000006D ; retn 0x0000 ;  (1 found)
0x00002522: imul ebx, dword [rax], 0x0F ; add rsp, 0x20 ; pop rbx ; ret  ;  (1 found)
0x00002554: imul ebx, dword [rax], 0x0F ; add rsp, 0x20 ; pop rbx ; ret  ;  (1 found)
0x00003f0d: imul ebx, edx, 0xFF ; call qword [rax+0x0F0D8B48] ;  (1 found)
0x00005346: in al, 0xFF ; call qword [rax-0x76FCA073] ;  (1 found)
0x0000533d: in al, dx ; xor byte [rbx], dh ; dec dword [rbp-0x2017FEB1] ; in al, 0xFF ; call qword [rax-0x76FCA073] ;  (1 found)
0x0000232b: in eax, 0x8B ; retn 0x0348 ;  (1 found)
0x000019ff: in eax, dx ; mov rbx, qword [rsp+0x30] ; add rsp, 0x20 ; pop rdi ; ret  ;  (1 found)
0x00004040: in eax, dx ; mov rbx, qword [rsp+0x30] ; add rsp, 0x20 ; pop rdi ; ret  ;  (1 found)
0x00004078: in eax, dx ; mov rbx, qword [rsp+0x30] ; add rsp, 0x20 ; pop rdi ; ret  ;  (1 found)
0x00002f4b: in eax, dx ; or byte [rax-0x01], cl ; ret  ;  (1 found)
0x00001902: inc bl ; lea rax, qword [rcx+rax-0x03] ; ret  ;  (1 found)
0x00005ef1: inc dword [rax+0x00000160] ; ret  ;  (1 found)
0x00005614: inc dword [rbx+0x03EBFFC8] ; mov eax, dword [rcx+0x1C] ; add rsp, 0x28 ; ret  ;  (1 found)
0x000027ca: inc dword [rbx] ; add rsp, 0x20 ; pop rbx ; ret  ;  (1 found)
0x000018fc: inc ebx ; lea rax, qword [rcx+rax-0x02] ; ret  ;  (1 found)
0x00008c41: inc ebx ; xor eax, eax ; ret  ;  (1 found)
0x00008679: insb  ; and al, 0x38 ; add rsp, 0x20 ; pop rdi ; ret  ;  (1 found)
0x0000db39: insd  ; add byte [rax], al ; push rax ; retn 0x0000 ;  (1 found)
0x00003337: insd  ; lodsd  ; add byte [rax], al ; ret  ;  (1 found)
0x000069f8: int 0x4D ; mov eax, esi ; mov rdx, r13 ; mov rcx, rbx ; call rax ;  (1 found)
0x000042b4: int 0xE8 ; retn 0x0028 ;  (1 found)
0x0000419e: int1  ; xor eax, eax ; ret  ;  (1 found)
0x00008cce: int1  ; xor rax, rax ; ret  ;  (1 found)
0x000050db: int3  ; and dword [0x000000000000EAD0], 0x00000000 ; ret  ;  (1 found)
0x000023c5: int3  ; int3  ; int3  ; lea rax, qword [0x000000000000C800] ; ret  ;  (1 found)
0x0000514b: int3  ; int3  ; int3  ; nop  ; ret  ;  (1 found)
0x00005154: int3  ; int3  ; int3  ; nop word [rax+rax+0x00000000] ; ret  ;  (1 found)
0x000023c6: int3  ; int3  ; lea rax, qword [0x000000000000C800] ; ret  ;  (1 found)
0x00003332: int3  ; int3  ; mov qword [0x000000000000E0A8], rcx ; ret  ;  (1 found)
0x00003b12: int3  ; int3  ; mov qword [0x000000000000E310], rcx ; ret  ;  (1 found)
0x0000514c: int3  ; int3  ; nop  ; ret  ;  (1 found)
0x00005155: int3  ; int3  ; nop word [rax+rax+0x00000000] ; ret  ;  (1 found)
0x000023c7: int3  ; lea rax, qword [0x000000000000C800] ; ret  ;  (1 found)
0x00003333: int3  ; mov qword [0x000000000000E0A8], rcx ; ret  ;  (1 found)
0x00003b13: int3  ; mov qword [0x000000000000E310], rcx ; ret  ;  (1 found)
0x00005ee8: int3  ; mov rax, qword [rcx+0x00000158] ; lock inc dword [rax+0x00000160] ; ret  ;  (1 found)
0x0000dcc4: int3  ; nop  ; add byte [rax], al ; clc  ; ret  ;  (1 found)
0x0000514d: int3  ; nop  ; ret  ;  (1 found)
0x00005156: int3  ; nop word [rax+rax+0x00000000] ; ret  ;  (1 found)
0x0000461d: int3  ; xor eax, eax ; add rsp, 0x28 ; ret  ;  (1 found)
0x00002e8d: jmp qword [rbx+0x7E000000] ;  (1 found)
0x00006e1a: jmp qword [rcx] ;  (1 found)
0x00006584: jmp qword [rsi+0x66] ;  (1 found)
0x00006633: jmp qword [rsi+0x66] ;  (1 found)
0x00006723: jmp qword [rsi+0x66] ;  (1 found)
0x00004d67: jmp qword [rsi-0x39] ;  (1 found)
0x00007846: jmp rax ;  (1 found)
0x000023c9: lea eax, dword [0x000000000000C800] ; ret  ;  (1 found)
0x000018f9: lea eax, dword [rcx+rax-0x01] ; ret  ;  (1 found)
0x000018ff: lea eax, dword [rcx+rax-0x02] ; ret  ;  (1 found)
0x00001905: lea eax, dword [rcx+rax-0x03] ; ret  ;  (1 found)
0x0000190b: lea eax, dword [rcx+rax-0x04] ; ret  ;  (1 found)
0x00001911: lea eax, dword [rcx+rax-0x05] ; ret  ;  (1 found)
0x00001917: lea eax, dword [rcx+rax-0x06] ; ret  ;  (1 found)
0x0000191d: lea eax, dword [rcx+rax-0x07] ; ret  ;  (1 found)
0x00001923: lea eax, dword [rcx+rax-0x08] ; ret  ;  (1 found)
0x00006980: lea eax, dword [rsp+0x38] ; mov qword [rsp+0x20], rcx ; lea edx, dword [r9-0x0B] ; mov rcx, rax ; call r12 ;  (1 found)
0x00002ef0: lea ecx, dword [rbp-0x48] ; mov rdx, rbx ; mov dword [rsp+0x20], r15d ; call rax ;  (1 found)
0x00008b87: lea ecx, dword [rdx] ; add byte [rax], al ; mov qword [0x000000000000DA70], rax ; add rsp, 0x48 ; ret  ;  (1 found)
0x00002253: lea ecx, dword [rsp+0x30] ; mov rdx, r13 ; add rax, r15 ; call rax ;  (1 found)
0x00006989: lea edx, dword [r9-0x0B] ; mov rcx, rax ; call r12 ;  (1 found)
0x00002f1b: lea edx, dword [rbp-0x80] ; mov rcx, rbx ; call rax ;  (1 found)
0x00002f3b: lea edx, dword [rbp-0x80] ; mov rcx, rbx ; call rax ;  (1 found)
0x0000698a: lea edx, dword [rcx-0x0B] ; mov rcx, rax ; call r12 ;  (1 found)
0x0000697f: lea r8, qword [rsp+0x38] ; mov qword [rsp+0x20], rcx ; lea edx, dword [r9-0x0B] ; mov rcx, rax ; call r12 ;  (1 found)
0x000023c8: lea rax, qword [0x000000000000C800] ; ret  ;  (1 found)
0x000018f8: lea rax, qword [rcx+rax-0x01] ; ret  ;  (1 found)
0x000018fe: lea rax, qword [rcx+rax-0x02] ; ret  ;  (1 found)
0x00001904: lea rax, qword [rcx+rax-0x03] ; ret  ;  (1 found)
0x0000190a: lea rax, qword [rcx+rax-0x04] ; ret  ;  (1 found)
0x00001910: lea rax, qword [rcx+rax-0x05] ; ret  ;  (1 found)
0x00001916: lea rax, qword [rcx+rax-0x06] ; ret  ;  (1 found)
0x0000191c: lea rax, qword [rcx+rax-0x07] ; ret  ;  (1 found)
0x00001922: lea rax, qword [rcx+rax-0x08] ; ret  ;  (1 found)
0x00002eef: lea rcx, qword [rbp-0x48] ; mov rdx, rbx ; mov dword [rsp+0x20], r15d ; call rax ;  (1 found)
0x00002252: lea rcx, qword [rsp+0x30] ; mov rdx, r13 ; add rax, r15 ; call rax ;  (1 found)
0x00002f1a: lea rdx, qword [rbp-0x80] ; mov rcx, rbx ; call rax ;  (1 found)
0x00002f3a: lea rdx, qword [rbp-0x80] ; mov rcx, rbx ; call rax ;  (1 found)
0x000090e9: leave  ; add byte [rax], al ; add byte [rax], al ; add byte [rax], al ; retn 0x00C9 ;  (1 found)
0x0000b5c9: leave  ; add byte [rax], al ; add byte [rax], al ; add byte [rax], al ; retn 0x00C9 ;  (1 found)
0x000016cf: leave  ; add dword [rax+0x39], ecx ; or eax, 0x0000C3C8 ; sete al ; ret  ;  (1 found)
0x00008d4d: leave  ; cmp rax, rcx ; sbb eax, eax ; sbb eax, 0xFFFFFFFF ; ret  ;  (1 found)
0x00005f90: lock add dword [rax+0x00000160], r9d ; mov rax, rcx ; ret  ;  (1 found)
0x00005ef0: lock inc dword [rax+0x00000160] ; ret  ;  (1 found)
0x00003338: lodsd  ; add byte [rax], al ; ret  ;  (1 found)
0x0000a954: mov ah, 0xB5 ; mov dh, 0xB7 ; mov eax, 0xBCBBBAB9 ; mov ebp, 0xC1C0BFBE ; retn 0xC4C3 ;  (1 found)
0x0000aa54: mov ah, 0xB5 ; mov dh, 0xB7 ; mov eax, 0xBCBBBAB9 ; mov ebp, 0xC1C0BFBE ; retn 0xC4C3 ;  (1 found)
0x0000aad4: mov ah, 0xB5 ; mov dh, 0xB7 ; mov eax, 0xBCBBBAB9 ; mov ebp, 0xC1C0BFBE ; retn 0xC4C3 ;  (1 found)
0x0000abd4: mov ah, 0xB5 ; mov dh, 0xB7 ; mov eax, 0xBCBBBAB9 ; mov ebp, 0xC1C0BFBE ; retn 0xC4C3 ;  (1 found)
0x000090e8: mov ah, 0xC9 ; add byte [rax], al ; add byte [rax], al ; add byte [rax], al ; retn 0x00C9 ;  (1 found)
0x0000b5c8: mov ah, 0xC9 ; add byte [rax], al ; add byte [rax], al ; add byte [rax], al ; retn 0x00C9 ;  (1 found)
0x000047cf: mov al, 0x00 ; add byte [rax], al ; mov ecx, 0x00000008 ; call r8 ;  (1 found)
0x00003abd: mov al, 0x00 ; add byte [rax], al ; mov ecx, edi ; call r13 ;  (1 found)
0x000047c9: mov al, 0x00 ; add byte [rax], al ; mov edx, dword [rbx+0x000000B0] ; mov ecx, 0x00000008 ; call r8 ;  (1 found)
0x0000873e: mov al, 0xFF ; call qword [rax+0x0C337C83] ;  (1 found)
0x00002f31: mov al, byte [0x0000651615FF0000] ; lea rdx, qword [rbp-0x80] ; mov rcx, rbx ; call rax ;  (1 found)
0x00002f11: mov al, byte [0x0000653615FF0000] ; lea rdx, qword [rbp-0x80] ; mov rcx, rbx ; call rax ;  (1 found)
0x00003a86: mov al, byte [0x08C8648348000000] ; add bh, bh ; retn 0x5489 ;  (1 found)
0x000059de: mov al, byte [0x48C38BFD000000C8] ; add esp, 0x40 ; pop rbx ; ret  ;  (1 found)
0x0000db94: mov al, byte [0x90000073D4000070] ; retn 0x0000 ;  (1 found)
0x0000dc9d: mov al, byte [rax] ; add dh, ch ; mov eax, dword [rax] ; add al, al ; ret  ;  (1 found)
0x00000855: mov bh, 0x09 ; add byte [rax], al ; add rsp, 0x0000000000000268 ; ret  ;  (1 found)
0x00008818: mov bh, 0x44 ; and al, 0x40 ; add rsp, 0x38 ; ret  ;  (1 found)
0x0000a957: mov bh, 0xB8 ; mov ecx, 0xBDBCBBBA ; mov esi, 0xC2C1C0BF ; ret  ;  (1 found)
0x0000aa57: mov bh, 0xB8 ; mov ecx, 0xBDBCBBBA ; mov esi, 0xC2C1C0BF ; ret  ;  (1 found)
0x0000aad7: mov bh, 0xB8 ; mov ecx, 0xBDBCBBBA ; mov esi, 0xC2C1C0BF ; ret  ;  (1 found)
0x0000abd7: mov bh, 0xB8 ; mov ecx, 0xBDBCBBBA ; mov esi, 0xC2C1C0BF ; ret  ;  (1 found)
0x000021ba: mov byte [0x0088C48148000072], al ; add byte [rax], al ; ret  ;  (1 found)
0x00005f93: mov byte [rax+0x01], ah ; add byte [rax], al ; mov rax, rcx ; ret  ;  (1 found)
0x000021c1: mov byte [rax], al ; add byte [rax], al ; ret  ;  (1 found)
0x00001172: mov byte [rax], dl ; add byte [rax], al ; ret  ;  (1 found)
0x000013c8: mov byte [rcx+rdx], al ; mov rax, r11 ; ret  ;  (1 found)
0x0000149e: mov byte [rcx+rdx], al ; mov rax, r11 ; ret  ;  (1 found)
0x0000db30: mov byte [rsi+0x6B9C0000], bh ; add byte [rax], al ; adc eax, 0x5000006D ; retn 0x0000 ;  (1 found)
0x0000a955: mov ch, 0xB6 ; mov bh, 0xB8 ; mov ecx, 0xBDBCBBBA ; mov esi, 0xC2C1C0BF ; ret  ;  (1 found)
0x0000aa55: mov ch, 0xB6 ; mov bh, 0xB8 ; mov ecx, 0xBDBCBBBA ; mov esi, 0xC2C1C0BF ; ret  ;  (1 found)
0x0000aad5: mov ch, 0xB6 ; mov bh, 0xB8 ; mov ecx, 0xBDBCBBBA ; mov esi, 0xC2C1C0BF ; ret  ;  (1 found)
0x0000abd5: mov ch, 0xB6 ; mov bh, 0xB8 ; mov ecx, 0xBDBCBBBA ; mov esi, 0xC2C1C0BF ; ret  ;  (1 found)
0x00002387: mov cl, 0x01 ; mov dword [r12+0x48], eax ; mov r8d, dword [rbx-0x04] ; add r8, r15 ; call r8 ;  (1 found)
0x0000a956: mov dh, 0xB7 ; mov eax, 0xBCBBBAB9 ; mov ebp, 0xC1C0BFBE ; retn 0xC4C3 ;  (1 found)
0x0000aa56: mov dh, 0xB7 ; mov eax, 0xBCBBBAB9 ; mov ebp, 0xC1C0BFBE ; retn 0xC4C3 ;  (1 found)
0x0000aad6: mov dh, 0xB7 ; mov eax, 0xBCBBBAB9 ; mov ebp, 0xC1C0BFBE ; retn 0xC4C3 ;  (1 found)
0x0000abd6: mov dh, 0xB7 ; mov eax, 0xBCBBBAB9 ; mov ebp, 0xC1C0BFBE ; retn 0xC4C3 ;  (1 found)
0x000050ca: mov dword [0x000000000000C7E0], ebx ; mov rbx, qword [rsp+0x40] ; add rsp, 0x20 ; pop rdi ; ret  ;  (1 found)
0x00008b8c: mov dword [0x000000000000DA70], eax ; add rsp, 0x48 ; ret  ;  (1 found)
0x00003335: mov dword [0x000000000000E0A8], ecx ; ret  ;  (1 found)
0x000038a2: mov dword [0x000000000000E2E0], eax ; add rsp, 0x28 ; ret  ;  (1 found)
0x000038b1: mov dword [0x000000000000E2E8], ecx ; mov qword [0x000000000000E2F0], rcx ; mov qword [0x000000000000E2F8], rcx ; mov qword [0x000000000000E300], rcx ; ret  ;  (1 found)
0x000038b8: mov dword [0x000000000000E2F0], ecx ; mov qword [0x000000000000E2F8], rcx ; mov qword [0x000000000000E300], rcx ; ret  ;  (1 found)
0x000038bf: mov dword [0x000000000000E2F8], ecx ; mov qword [0x000000000000E300], rcx ; ret  ;  (1 found)
0x000038c6: mov dword [0x000000000000E300], ecx ; ret  ;  (1 found)
0x00003b15: mov dword [0x000000000000E310], ecx ; ret  ;  (1 found)
0x00003b1d: mov dword [0x000000000000E318], ecx ; ret  ;  (1 found)
0x00003b25: mov dword [0x000000000000E320], ecx ; ret  ;  (1 found)
0x00005e5b: mov dword [0x000000000000FD30], 0x00000001 ; xor eax, eax ; add rsp, 0x28 ; ret  ;  (1 found)
0x00000969: mov dword [0x0268C48148000008], eax ; add byte [rax], al ; ret  ;  (1 found)
0x0000243a: mov dword [0x8348011489480000], eax ; retn 0x4830 ;  (1 found)
0x00003611: mov dword [r10], eax ; add rsp, 0x20 ; pop rbx ; ret  ;  (1 found)
0x00002389: mov dword [r12+0x48], eax ; mov r8d, dword [rbx-0x04] ; add r8, r15 ; call r8 ;  (1 found)
0x0000dc89: mov dword [rax], eax ; add byte [rax-0x07FFFF3D], cl ; mov dword [rax], eax ; add byte [rsi-0x4FFFFF76], cl ; ret  ;  (1 found)
0x0000dc91: mov dword [rax], eax ; add byte [rsi-0x4FFFFF76], cl ; ret  ;  (1 found)
0x000047c7: mov dword [rbx+0x000000B0], eax ; mov edx, dword [rbx+0x000000B0] ; mov ecx, 0x00000008 ; call r8 ;  (1 found)
0x00008b52: mov dword [rbx+0x08], eax ; add rsp, 0x20 ; pop rbx ; ret  ;  (1 found)
0x00008b4f: mov dword [rbx+0x10], eax ; mov dword [rbx+0x08], eax ; add rsp, 0x20 ; pop rbx ; ret  ;  (1 found)
0x00007889: mov dword [rbx], 0x0000000C ; mov rbx, qword [rsp+0x30] ; add rsp, 0x20 ; pop rdi ; ret  ;  (1 found)
0x00005325: mov dword [rbx], eax ; add rsp, 0x20 ; pop rbx ; ret  ;  (1 found)
0x0000764b: mov dword [rbx], eax ; add rsp, 0x20 ; pop rbx ; ret  ;  (1 found)
0x00005448: mov dword [rbx], ecx ; mov rbx, qword [rsp+0x30] ; add rsp, 0x20 ; pop rdi ; ret  ;  (1 found)
0x000047e4: mov dword [rcx+0x08], ecx ; mov ecx, dword [rcx+0x04] ; call r8 ;  (1 found)
0x00001bc1: mov dword [rdi], eax ; call rbx ;  (1 found)
0x00003612: mov dword [rdx], eax ; add rsp, 0x20 ; pop rbx ; ret  ;  (1 found)
0x00000590: mov dword [rsp+0x20], 0x00000001 ; mov eax, dword [rsp+0x20] ; add rsp, 0x38 ; ret  ;  (1 found)
0x00006985: mov dword [rsp+0x20], ecx ; lea edx, dword [r9-0x0B] ; mov rcx, rax ; call r12 ;  (1 found)
0x00002ef7: mov dword [rsp+0x20], edi ; call rax ;  (1 found)
0x00003500: mov dword [rsp+0x20], edx ; call rax ;  (1 found)
0x00002ef6: mov dword [rsp+0x20], r15d ; call rax ;  (1 found)
0x00002eeb: mov dword [rsp+0x28], ecx ; lea rcx, qword [rbp-0x48] ; mov rdx, rbx ; mov dword [rsp+0x20], r15d ; call rax ;  (1 found)
0x0000238a: mov dword [rsp+0x48], eax ; mov r8d, dword [rbx-0x04] ; add r8, r15 ; call r8 ;  (1 found)
0x000011ef: mov eax, 0x00000001 ; add rsp, 0x28 ; ret  ;  (1 found)
0x0000501c: mov eax, 0x00000001 ; add rsp, 0x28 ; ret  ;  (1 found)
0x00003572: mov eax, 0x0000000D ; ret  ;  (1 found)
0x0000357e: mov eax, 0x00000016 ; cmp ecx, 0x0E ; cmovbe eax, r8d ; ret  ;  (1 found)
0x00002ef2: mov eax, 0x44D38B48 ; mov dword [rsp+0x20], edi ; call rax ;  (1 found)
0x00008dce: mov eax, 0x4890FFFF ; add esp, 0x20 ; pop rbp ; ret  ;  (1 found)
0x0000a958: mov eax, 0xBCBBBAB9 ; mov ebp, 0xC1C0BFBE ; retn 0xC4C3 ;  (1 found)
0x0000aa58: mov eax, 0xBCBBBAB9 ; mov ebp, 0xC1C0BFBE ; retn 0xC4C3 ;  (1 found)
0x0000aad8: mov eax, 0xBCBBBAB9 ; mov ebp, 0xC1C0BFBE ; retn 0xC4C3 ;  (1 found)
0x0000abd8: mov eax, 0xBCBBBAB9 ; mov ebp, 0xC1C0BFBE ; retn 0xC4C3 ;  (1 found)
0x0000116b: mov eax, dword [0x1088C48148000000] ; add byte [rax], al ; ret  ;  (1 found)
0x00006221: mov eax, dword [0xC48348FD000000C8] ; pop rbx ; ret  ;  (1 found)
0x0000626b: mov eax, dword [0xC48348FD000000C8] ; pop rbx ; ret  ;  (1 found)
0x0000358d: mov eax, dword [r9+rax*8+0x04] ; ret  ;  (1 found)
0x000041a8: mov eax, dword [rax+rax*8+0x08] ; ret  ;  (1 found)
0x0000dca1: mov eax, dword [rax] ; add al, al ; ret  ;  (1 found)
0x0000238f: mov eax, dword [rbx-0x04] ; add r8, r15 ; call r8 ;  (1 found)
0x00002250: mov eax, dword [rbx] ; lea rcx, qword [rsp+0x30] ; mov rdx, r13 ; add rax, r15 ; call rax ;  (1 found)
0x00005f8a: mov eax, dword [rcx+0x00000158] ; lock add dword [rax+0x00000160], r9d ; mov rax, rcx ; ret  ;  (1 found)
0x00005eea: mov eax, dword [rcx+0x00000158] ; lock inc dword [rax+0x00000160] ; ret  ;  (1 found)
0x0000561a: mov eax, dword [rcx+0x1C] ; add rsp, 0x28 ; ret  ;  (1 found)
0x0000358e: mov eax, dword [rcx+rax*8+0x04] ; ret  ;  (1 found)
0x00000598: mov eax, dword [rsp+0x20] ; add rsp, 0x38 ; ret  ;  (1 found)
0x00006cca: mov eax, dword [rsp+0x38] ; mov rbx, qword [rsp+0x30] ; add rsp, 0x20 ; pop rdi ; ret  ;  (1 found)
0x00002781: mov eax, ebx ; add rsp, 0x20 ; pop rbx ; ret  ;  (1 found)
0x00003cec: mov eax, ebx ; add rsp, 0x20 ; pop rbx ; ret  ;  (1 found)
0x000061dd: mov eax, ebx ; add rsp, 0x20 ; pop rbx ; ret  ;  (1 found)
0x00006a54: mov eax, ebx ; add rsp, 0x20 ; pop rbx ; ret  ;  (1 found)
0x00006af7: mov eax, ebx ; add rsp, 0x20 ; pop rbx ; ret  ;  (1 found)
0x00006bc8: mov eax, ebx ; add rsp, 0x20 ; pop rbx ; ret  ;  (1 found)
0x0000767d: mov eax, ebx ; add rsp, 0x20 ; pop rbx ; ret  ;  (1 found)
0x000059e4: mov eax, ebx ; add rsp, 0x40 ; pop rbx ; ret  ;  (1 found)
0x000051d4: mov eax, ebx ; mov rbx, qword [rsp+0x30] ; add rsp, 0x20 ; pop r12 ; ret  ;  (1 found)
0x00005259: mov eax, ebx ; mov rbx, qword [rsp+0x30] ; add rsp, 0x20 ; pop r12 ; ret  ;  (1 found)
0x000052df: mov eax, ebx ; mov rbx, qword [rsp+0x30] ; add rsp, 0x20 ; pop r12 ; ret  ;  (1 found)
0x00003cc3: mov eax, ebx ; mov rbx, qword [rsp+0x30] ; add rsp, 0x20 ; pop rdi ; ret  ;  (1 found)
0x0000594d: mov eax, ebx ; mov rbx, qword [rsp+0x38] ; add rsp, 0x20 ; pop rdi ; ret  ;  (1 found)
0x000013cc: mov eax, ebx ; ret  ;  (1 found)
0x000014a2: mov eax, ebx ; ret  ;  (1 found)
0x0000157f: mov eax, ebx ; ret  ;  (1 found)
0x00001614: mov eax, ebx ; ret  ;  (1 found)
0x0000171d: mov eax, ebx ; ret  ;  (1 found)
0x000017ed: mov eax, ebx ; ret  ;  (1 found)
0x0000184f: mov eax, ebx ; ret  ;  (1 found)
0x00006519: mov eax, ebx ; ret  ;  (1 found)
0x0000652e: mov eax, ebx ; ret  ;  (1 found)
0x000066ba: mov eax, ebx ; ret  ;  (1 found)
0x000066ce: mov eax, ebx ; ret  ;  (1 found)
0x00008e89: mov eax, ecx ; add rsp, 0x20 ; pop rbp ; ret  ;  (1 found)
0x00008e87: mov eax, ecx ; mov eax, ecx ; add rsp, 0x20 ; pop rbp ; ret  ;  (1 found)
0x00001868: mov eax, ecx ; ret  ;  (1 found)
0x00004133: mov eax, ecx ; ret  ;  (1 found)
0x00005f99: mov eax, ecx ; ret  ;  (1 found)
0x000016ba: mov eax, edi ; add rsp, 0x28 ; pop rdi ; pop rbx ; ret  ;  (1 found)
0x000079dd: mov eax, edi ; mov rbx, qword [rsp+0x30] ; add rsp, 0x20 ; pop rdi ; ret  ;  (1 found)
0x0000205a: mov eax, edi ; mov rbx, qword [rsp+0x48] ; add rsp, 0x30 ; pop rdi ; ret  ;  (1 found)
0x000069fa: mov eax, esi ; mov rdx, r13 ; mov rcx, rbx ; call rax ;  (1 found)
0x0000d681: mov ebp, 0x19F00000 ; add byte [rax], al ; ret  ;  (1 found)
0x0000d6ed: mov ebp, 0x22180000 ; add byte [rax], al ; ret  ;  (1 found)
0x0000dbf1: mov ebp, 0x78DC0000 ; add byte [rax], al ; mov edi, 0xB0000079 ; retn 0x0000 ;  (1 found)
0x0000a95d: mov ebp, 0xC1C0BFBE ; retn 0xC4C3 ;  (1 found)
0x0000aa5d: mov ebp, 0xC1C0BFBE ; retn 0xC4C3 ;  (1 found)
0x0000aadd: mov ebp, 0xC1C0BFBE ; retn 0xC4C3 ;  (1 found)
0x0000abdd: mov ebp, 0xC1C0BFBE ; retn 0xC4C3 ;  (1 found)
0x00008678: mov ebp, dword [rsp+0x38] ; add rsp, 0x20 ; pop rdi ; ret  ;  (1 found)
0x00002816: mov ebp, dword [rsp+0x38] ; mov rsi, qword [rsp+0x40] ; add rsp, 0x20 ; pop rdi ; ret  ;  (1 found)
0x00003718: mov ebp, dword [rsp+0x38] ; mov rsi, qword [rsp+0x40] ; add rsp, 0x20 ; pop rdi ; ret  ;  (1 found)
0x00004801: mov ebp, dword [rsp+0x38] ; mov rsi, qword [rsp+0x40] ; add rsp, 0x20 ; pop rdi ; ret  ;  (1 found)
0x000056a1: mov ebp, dword [rsp+0x38] ; mov rsi, qword [rsp+0x40] ; add rsp, 0x20 ; pop rdi ; ret  ;  (1 found)
0x000045d2: mov ebp, dword [rsp+0x40] ; mov rsi, qword [rsp+0x48] ; add rsp, 0x20 ; pop rdi ; ret  ;  (1 found)
0x0000350c: mov ebp, dword [rsp+0x48] ; mov rsi, qword [rsp+0x50] ; add rsp, 0x30 ; pop rdi ; ret  ;  (1 found)
0x00004902: mov ebp, dword [rsp+0x48] ; mov rsi, qword [rsp+0x50] ; add rsp, 0x30 ; pop rdi ; ret  ;  (1 found)
0x0000a95b: mov ebx, 0xBFBEBDBC ; rol cl, 0xFFFFFFC2 ; ret  ;  (1 found)
0x0000aa5b: mov ebx, 0xBFBEBDBC ; rol cl, 0xFFFFFFC2 ; ret  ;  (1 found)
0x0000aadb: mov ebx, 0xBFBEBDBC ; rol cl, 0xFFFFFFC2 ; ret  ;  (1 found)
0x0000abdb: mov ebx, 0xBFBEBDBC ; rol cl, 0xFFFFFFC2 ; ret  ;  (1 found)
0x00007e82: mov ebx, dword [rbx+0x10] ; mov rsi, qword [r11+0x18] ; mov rsp, r11 ; pop rdi ; ret  ;  (1 found)
0x00001ee5: mov ebx, dword [rsp+0x08] ; add rsp, 0x10 ; ret  ;  (1 found)
0x000051d7: mov ebx, dword [rsp+0x30] ; add rsp, 0x20 ; pop r12 ; ret  ;  (1 found)
0x0000525c: mov ebx, dword [rsp+0x30] ; add rsp, 0x20 ; pop r12 ; ret  ;  (1 found)
0x000052e2: mov ebx, dword [rsp+0x30] ; add rsp, 0x20 ; pop r12 ; ret  ;  (1 found)
0x00001a01: mov ebx, dword [rsp+0x30] ; add rsp, 0x20 ; pop rdi ; ret  ;  (1 found)
0x00001a3b: mov ebx, dword [rsp+0x30] ; add rsp, 0x20 ; pop rdi ; ret  ;  (1 found)
0x00001aed: mov ebx, dword [rsp+0x30] ; add rsp, 0x20 ; pop rdi ; ret  ;  (1 found)
0x00003c3f: mov ebx, dword [rsp+0x30] ; add rsp, 0x20 ; pop rdi ; ret  ;  (1 found)
0x00003cc6: mov ebx, dword [rsp+0x30] ; add rsp, 0x20 ; pop rdi ; ret  ;  (1 found)
0x00004042: mov ebx, dword [rsp+0x30] ; add rsp, 0x20 ; pop rdi ; ret  ;  (1 found)
0x0000407a: mov ebx, dword [rsp+0x30] ; add rsp, 0x20 ; pop rdi ; ret  ;  (1 found)
0x000040b0: mov ebx, dword [rsp+0x30] ; add rsp, 0x20 ; pop rdi ; ret  ;  (1 found)
0x0000544b: mov ebx, dword [rsp+0x30] ; add rsp, 0x20 ; pop rdi ; ret  ;  (1 found)
0x00006ccf: mov ebx, dword [rsp+0x30] ; add rsp, 0x20 ; pop rdi ; ret  ;  (1 found)
0x00007890: mov ebx, dword [rsp+0x30] ; add rsp, 0x20 ; pop rdi ; ret  ;  (1 found)
0x000079e0: mov ebx, dword [rsp+0x30] ; add rsp, 0x20 ; pop rdi ; ret  ;  (1 found)
0x00008a56: mov ebx, dword [rsp+0x30] ; add rsp, 0x20 ; pop rdi ; ret  ;  (1 found)
0x00008673: mov ebx, dword [rsp+0x30] ; mov rbp, qword [rsp+0x38] ; add rsp, 0x20 ; pop rdi ; ret  ;  (1 found)
0x0000269d: mov ebx, dword [rsp+0x30] ; mov rdi, qword [rsp+0x38] ; add rsp, 0x20 ; pop r12 ; ret  ;  (1 found)
0x000077ef: mov ebx, dword [rsp+0x30] ; mov rsi, qword [rsp+0x38] ; add rsp, 0x20 ; pop rdi ; ret  ;  (1 found)
0x0000792b: mov ebx, dword [rsp+0x30] ; mov rsi, qword [rsp+0x38] ; add rsp, 0x20 ; pop rdi ; ret  ;  (1 found)
0x00003e1d: mov ebx, dword [rsp+0x38] ; add rsp, 0x20 ; pop rdi ; ret  ;  (1 found)
0x00005950: mov ebx, dword [rsp+0x38] ; add rsp, 0x20 ; pop rdi ; ret  ;  (1 found)
0x00007a48: mov ebx, dword [rsp+0x38] ; add rsp, 0x20 ; pop rdi ; ret  ;  (1 found)
0x000050d1: mov ebx, dword [rsp+0x40] ; add rsp, 0x20 ; pop rdi ; ret  ;  (1 found)
0x000053cb: mov ebx, dword [rsp+0x40] ; mov rsi, qword [rsp+0x48] ; add rsp, 0x30 ; pop rdi ; ret  ;  (1 found)
0x0000205d: mov ebx, dword [rsp+0x48] ; add rsp, 0x30 ; pop rdi ; ret  ;  (1 found)
0x00004bf7: mov ebx, dword [rsp+0x50] ; mov rsi, qword [rsp+0x58] ; add rsp, 0x30 ; pop rdi ; ret  ;  (1 found)
0x00007724: mov ebx, dword [rsp+0x50] ; mov rsi, qword [rsp+0x58] ; add rsp, 0x40 ; pop rdi ; ret  ;  (1 found)
0x0000805f: mov ebx, dword [rsp+0x70] ; mov rsi, qword [rsp+0x78] ; add rsp, 0x60 ; pop rdi ; ret  ;  (1 found)
0x000047d3: mov ecx, 0x00000008 ; call r8 ;  (1 found)
0x000018f7: mov ecx, 0x01448D48 ; inc ebx ; lea rax, qword [rcx+rax-0x02] ; ret  ;  (1 found)
0x0000a959: mov ecx, 0xBDBCBBBA ; mov esi, 0xC2C1C0BF ; ret  ;  (1 found)
0x0000aa59: mov ecx, 0xBDBCBBBA ; mov esi, 0xC2C1C0BF ; ret  ;  (1 found)
0x0000aad9: mov ecx, 0xBDBCBBBA ; mov esi, 0xC2C1C0BF ; ret  ;  (1 found)
0x0000abd9: mov ecx, 0xBDBCBBBA ; mov esi, 0xC2C1C0BF ; ret  ;  (1 found)
0x000047e7: mov ecx, dword [rcx+0x04] ; call r8 ;  (1 found)
0x0000621c: mov ecx, dword [rsp+0x30] ; and dword [rcx+0x000000C8], 0xFFFFFFFD ; add rsp, 0x40 ; pop rbx ; ret  ;  (1 found)
0x00006266: mov ecx, dword [rsp+0x30] ; and dword [rcx+0x000000C8], 0xFFFFFFFD ; add rsp, 0x40 ; pop rbx ; ret  ;  (1 found)
0x0000698e: mov ecx, eax ; call r12 ;  (1 found)
0x000069f7: mov ecx, ebp ; mov r8, r14 ; mov rdx, r13 ; mov rcx, rbx ; call rax ;  (1 found)
0x00003ac8: mov ecx, ebx ; call r13 ;  (1 found)
0x00001957: mov ecx, ebx ; call rax ;  (1 found)
0x00002f1f: mov ecx, ebx ; call rax ;  (1 found)
0x00002f3f: mov ecx, ebx ; call rax ;  (1 found)
0x00003b48: mov ecx, ebx ; call rax ;  (1 found)
0x000069dd: mov ecx, ebx ; call rax ;  (1 found)
0x00006a00: mov ecx, ebx ; call rax ;  (1 found)
0x00003ac1: mov ecx, edi ; call r13 ;  (1 found)
0x00002e42: mov edi, 0x2B000001 ; ret  ;  (1 found)
0x0000dbf8: mov edi, 0xB0000079 ; retn 0x0000 ;  (1 found)
0x00005898: mov edi, dword [rbx+0x28] ; mov rsp, r11 ; pop rbp ; ret  ;  (1 found)
0x000026a2: mov edi, dword [rsp+0x38] ; add rsp, 0x20 ; pop r12 ; ret  ;  (1 found)
0x00003686: mov edi, dword [rsp+0x40] ; add rsp, 0x20 ; pop r12 ; ret  ;  (1 found)
0x0000381b: mov edi, dword [rsp+0x40] ; add rsp, 0x20 ; pop r13 ; ret  ;  (1 found)
0x0000878d: mov edi, dword [rsp+0x40] ; mov r12, qword [rsp+0x48] ; add rsp, 0x20 ; pop r14 ; ret  ;  (1 found)
0x000028c4: mov edi, dword [rsp+0x48] ; add rsp, 0x20 ; pop r12 ; ret  ;  (1 found)
0x00005e32: mov edi, dword [rsp+0x50] ; mov r12, qword [rsp+0x58] ; add rsp, 0x30 ; pop r13 ; ret  ;  (1 found)
0x00004cf1: mov edi, dword [rsp+0x68] ; add rsp, 0x40 ; pop r12 ; ret  ;  (1 found)
0x00008870: mov edi, dword [rsp+0x70] ; mov r12, qword [rsp+0x78] ; add rsp, 0x50 ; pop rbp ; ret  ;  (1 found)
0x00008e5b: mov edi, edi ; call qword [rax+0x20C48348] ;  (1 found)
0x000040e1: mov edx, 0x0000020B ; cmp word [rcx+0x18], dx ; sete al ; rep ret  ;  (1 found)
0x00002521: mov edx, 0x480F186B ; add esp, 0x20 ; pop rbx ; ret  ;  (1 found)
0x00002553: mov edx, 0x480F186B ; add esp, 0x20 ; pop rbx ; ret  ;  (1 found)
0x000061d9: mov edx, 0x8B48FFFF ; ret  ;  (1 found)
0x00002f4a: mov edx, 0xFF4808ED ; ret  ;  (1 found)
0x000047cd: mov edx, dword [rbx+0x000000B0] ; mov ecx, 0x00000008 ; call r8 ;  (1 found)
0x00003abb: mov edx, dword [rsi+0x000000B0] ; mov ecx, edi ; call r13 ;  (1 found)
0x000034fb: mov edx, dword [rsp+0x60] ; mov qword [rsp+0x20], r10 ; call rax ;  (1 found)
0x00001ee1: mov edx, dword [rsp] ; mov r11, qword [rsp+0x08] ; add rsp, 0x10 ; ret  ;  (1 found)
0x00002258: mov edx, ebp ; add rax, r15 ; call rax ;  (1 found)
0x000069fd: mov edx, ebp ; mov rcx, rbx ; call rax ;  (1 found)
0x00002ef4: mov edx, ebx ; mov dword [rsp+0x20], r15d ; call rax ;  (1 found)
0x0000db31: mov esi, 0x6B9C0000 ; add byte [rax], al ; adc eax, 0x5000006D ; retn 0x0000 ;  (1 found)
0x0000a95e: mov esi, 0xC2C1C0BF ; ret  ;  (1 found)
0x0000aa5e: mov esi, 0xC2C1C0BF ; ret  ;  (1 found)
0x0000aade: mov esi, 0xC2C1C0BF ; ret  ;  (1 found)
0x0000abde: mov esi, 0xC2C1C0BF ; ret  ;  (1 found)
0x0000767a: mov esi, 0xC38BFFFF ; add rsp, 0x20 ; pop rbx ; ret  ;  (1 found)
0x00007e86: mov esi, dword [rbx+0x18] ; mov rsp, r11 ; pop rdi ; ret  ;  (1 found)
0x00005894: mov esi, dword [rbx+0x20] ; mov rdi, qword [r11+0x28] ; mov rsp, r11 ; pop rbp ; ret  ;  (1 found)
0x00008c74: mov esi, dword [rbx] ; rol bl, 0x00000048 ; sbb eax, eax ; sbb rax, 0xFFFFFFFFFFFFFFFF ; ret  ;  (1 found)
0x000077f4: mov esi, dword [rsp+0x38] ; add rsp, 0x20 ; pop rdi ; ret  ;  (1 found)
0x00007930: mov esi, dword [rsp+0x38] ; add rsp, 0x20 ; pop rdi ; ret  ;  (1 found)
0x00003681: mov esi, dword [rsp+0x38] ; mov rdi, qword [rsp+0x40] ; add rsp, 0x20 ; pop r12 ; ret  ;  (1 found)
0x00003816: mov esi, dword [rsp+0x38] ; mov rdi, qword [rsp+0x40] ; add rsp, 0x20 ; pop r13 ; ret  ;  (1 found)
0x0000281b: mov esi, dword [rsp+0x40] ; add rsp, 0x20 ; pop rdi ; ret  ;  (1 found)
0x0000371d: mov esi, dword [rsp+0x40] ; add rsp, 0x20 ; pop rdi ; ret  ;  (1 found)
0x00004806: mov esi, dword [rsp+0x40] ; add rsp, 0x20 ; pop rdi ; ret  ;  (1 found)
0x000056a6: mov esi, dword [rsp+0x40] ; add rsp, 0x20 ; pop rdi ; ret  ;  (1 found)
0x000028bf: mov esi, dword [rsp+0x40] ; mov rdi, qword [rsp+0x48] ; add rsp, 0x20 ; pop r12 ; ret  ;  (1 found)
0x000045d7: mov esi, dword [rsp+0x48] ; add rsp, 0x20 ; pop rdi ; ret  ;  (1 found)
0x000053d0: mov esi, dword [rsp+0x48] ; add rsp, 0x30 ; pop rdi ; ret  ;  (1 found)
0x00003511: mov esi, dword [rsp+0x50] ; add rsp, 0x30 ; pop rdi ; ret  ;  (1 found)
0x00004907: mov esi, dword [rsp+0x50] ; add rsp, 0x30 ; pop rdi ; ret  ;  (1 found)
0x00004bfc: mov esi, dword [rsp+0x58] ; add rsp, 0x30 ; pop rdi ; ret  ;  (1 found)
0x00007729: mov esi, dword [rsp+0x58] ; add rsp, 0x40 ; pop rdi ; ret  ;  (1 found)
0x00004cec: mov esi, dword [rsp+0x60] ; mov rdi, qword [rsp+0x68] ; add rsp, 0x40 ; pop r12 ; ret  ;  (1 found)
0x00008064: mov esi, dword [rsp+0x78] ; add rsp, 0x60 ; pop rdi ; ret  ;  (1 found)
0x00008792: mov esp, dword [rsp+0x48] ; add rsp, 0x20 ; pop r14 ; ret  ;  (1 found)
0x00005e37: mov esp, dword [rsp+0x58] ; add rsp, 0x30 ; pop r13 ; ret  ;  (1 found)
0x00008875: mov esp, dword [rsp+0x78] ; add rsp, 0x50 ; pop rbp ; ret  ;  (1 found)
0x00003480: mov esp, ebx ; pop r12 ; pop rdi ; pop rbp ; ret  ;  (1 found)
0x00004405: mov esp, ebx ; pop r13 ; pop r12 ; pop rdi ; ret  ;  (1 found)
0x00004fc5: mov esp, ebx ; pop r14 ; pop r13 ; pop r12 ; ret  ;  (1 found)
0x0000589c: mov esp, ebx ; pop rbp ; ret  ;  (1 found)
0x00007e8a: mov esp, ebx ; pop rdi ; ret  ;  (1 found)
0x000050c9: mov qword [0x000000000000C7E0], r11 ; mov rbx, qword [rsp+0x40] ; add rsp, 0x20 ; pop rdi ; ret  ;  (1 found)
0x00008b8b: mov qword [0x000000000000DA70], rax ; add rsp, 0x48 ; ret  ;  (1 found)
0x00003334: mov qword [0x000000000000E0A8], rcx ; ret  ;  (1 found)
0x000038a1: mov qword [0x000000000000E2E0], rax ; add rsp, 0x28 ; ret  ;  (1 found)
0x000038b0: mov qword [0x000000000000E2E8], rcx ; mov qword [0x000000000000E2F0], rcx ; mov qword [0x000000000000E2F8], rcx ; mov qword [0x000000000000E300], rcx ; ret  ;  (1 found)
0x000038b7: mov qword [0x000000000000E2F0], rcx ; mov qword [0x000000000000E2F8], rcx ; mov qword [0x000000000000E300], rcx ; ret  ;  (1 found)
0x000038be: mov qword [0x000000000000E2F8], rcx ; mov qword [0x000000000000E300], rcx ; ret  ;  (1 found)
0x000038c5: mov qword [0x000000000000E300], rcx ; ret  ;  (1 found)
0x00003b14: mov qword [0x000000000000E310], rcx ; ret  ;  (1 found)
0x00003b1c: mov qword [0x000000000000E318], rcx ; ret  ;  (1 found)
0x00003b24: mov qword [0x000000000000E320], rcx ; ret  ;  (1 found)
0x00008b4e: mov qword [rbx+0x10], rax ; mov dword [rbx+0x08], eax ; add rsp, 0x20 ; pop rbx ; ret  ;  (1 found)
0x0000764a: mov qword [rbx], rax ; add rsp, 0x20 ; pop rbx ; ret  ;  (1 found)
0x00005447: mov qword [rbx], rcx ; mov rbx, qword [rsp+0x30] ; add rsp, 0x20 ; pop rdi ; ret  ;  (1 found)
0x000047e3: mov qword [rcx+0x08], r9 ; mov ecx, dword [rcx+0x04] ; call r8 ;  (1 found)
0x00001bc0: mov qword [rdi], rax ; call rbx ;  (1 found)
0x000034ff: mov qword [rsp+0x20], r10 ; call rax ;  (1 found)
0x00006984: mov qword [rsp+0x20], rcx ; lea edx, dword [r9-0x0B] ; mov rcx, rax ; call r12 ;  (1 found)
0x000034fa: mov r10, qword [rsp+0x60] ; mov qword [rsp+0x20], r10 ; call rax ;  (1 found)
0x00001edf: mov r10, qword [rsp] ; mov r11, qword [rsp+0x08] ; add rsp, 0x10 ; ret  ;  (1 found)
0x00001ee0: mov r10, qword [rsp] ; mov r11, qword [rsp+0x08] ; add rsp, 0x10 ; ret  ;  (1 found)
0x00001ee4: mov r11, qword [rsp+0x08] ; add rsp, 0x10 ; ret  ;  (1 found)
0x00008790: mov r12, qword [rsp+0x48] ; add rsp, 0x20 ; pop r14 ; ret  ;  (1 found)
0x00008791: mov r12, qword [rsp+0x48] ; add rsp, 0x20 ; pop r14 ; ret  ;  (1 found)
0x00005e36: mov r12, qword [rsp+0x58] ; add rsp, 0x30 ; pop r13 ; ret  ;  (1 found)
0x00008874: mov r12, qword [rsp+0x78] ; add rsp, 0x50 ; pop rbp ; ret  ;  (1 found)
0x00002ef1: mov r8, 0x20247C8944D38B48 ; call rax ;  (1 found)
0x0000238d: mov r8, qword [rbx-0x04] ; add r8, r15 ; call r8 ;  (1 found)
0x000069f9: mov r8, r14 ; mov rdx, r13 ; mov rcx, rbx ; call rax ;  (1 found)
0x0000238e: mov r8d, dword [rbx-0x04] ; add r8, r15 ; call r8 ;  (1 found)
0x000069f6: mov r9d, ebp ; mov r8, r14 ; mov rdx, r13 ; mov rcx, rbx ; call rax ;  (1 found)
0x000041a7: mov rax, qword [r8+rax*8+0x08] ; ret  ;  (1 found)
0x00005f89: mov rax, qword [rcx+0x00000158] ; lock add dword [rax+0x00000160], r9d ; mov rax, rcx ; ret  ;  (1 found)
0x00005ee9: mov rax, qword [rcx+0x00000158] ; lock inc dword [rax+0x00000160] ; ret  ;  (1 found)
0x00006cc9: mov rax, qword [rsp+0x38] ; mov rbx, qword [rsp+0x30] ; add rsp, 0x20 ; pop rdi ; ret  ;  (1 found)
0x000013cb: mov rax, r11 ; ret  ;  (1 found)
0x000014a1: mov rax, r11 ; ret  ;  (1 found)
0x0000157e: mov rax, r11 ; ret  ;  (1 found)
0x00001613: mov rax, r11 ; ret  ;  (1 found)
0x0000171c: mov rax, r11 ; ret  ;  (1 found)
0x000017ec: mov rax, r11 ; ret  ;  (1 found)
0x0000184d: mov rax, r11 ; ret  ;  (1 found)
0x0000184e: mov rax, r11 ; ret  ;  (1 found)
0x00006518: mov rax, r11 ; ret  ;  (1 found)
0x0000652c: mov rax, r11 ; ret  ;  (1 found)
0x0000652d: mov rax, r11 ; ret  ;  (1 found)
0x000066b9: mov rax, r11 ; ret  ;  (1 found)
0x000066cc: mov rax, r11 ; ret  ;  (1 found)
0x000066cd: mov rax, r11 ; ret  ;  (1 found)
0x00002780: mov rax, rbx ; add rsp, 0x20 ; pop rbx ; ret  ;  (1 found)
0x00003ceb: mov rax, rbx ; add rsp, 0x20 ; pop rbx ; ret  ;  (1 found)
0x000061dc: mov rax, rbx ; add rsp, 0x20 ; pop rbx ; ret  ;  (1 found)
0x000051d2: mov rax, rbx ; mov rbx, qword [rsp+0x30] ; add rsp, 0x20 ; pop r12 ; ret  ;  (1 found)
0x000051d3: mov rax, rbx ; mov rbx, qword [rsp+0x30] ; add rsp, 0x20 ; pop r12 ; ret  ;  (1 found)
0x00005257: mov rax, rbx ; mov rbx, qword [rsp+0x30] ; add rsp, 0x20 ; pop r12 ; ret  ;  (1 found)
0x00005258: mov rax, rbx ; mov rbx, qword [rsp+0x30] ; add rsp, 0x20 ; pop r12 ; ret  ;  (1 found)
0x000052dd: mov rax, rbx ; mov rbx, qword [rsp+0x30] ; add rsp, 0x20 ; pop r12 ; ret  ;  (1 found)
0x000052de: mov rax, rbx ; mov rbx, qword [rsp+0x30] ; add rsp, 0x20 ; pop r12 ; ret  ;  (1 found)
0x00003cc2: mov rax, rbx ; mov rbx, qword [rsp+0x30] ; add rsp, 0x20 ; pop rdi ; ret  ;  (1 found)
0x0000594c: mov rax, rbx ; mov rbx, qword [rsp+0x38] ; add rsp, 0x20 ; pop rdi ; ret  ;  (1 found)
0x00001867: mov rax, rcx ; ret  ;  (1 found)
0x00004132: mov rax, rcx ; ret  ;  (1 found)
0x00005f98: mov rax, rcx ; ret  ;  (1 found)
0x00008677: mov rbp, qword [rsp+0x38] ; add rsp, 0x20 ; pop rdi ; ret  ;  (1 found)
0x00002815: mov rbp, qword [rsp+0x38] ; mov rsi, qword [rsp+0x40] ; add rsp, 0x20 ; pop rdi ; ret  ;  (1 found)
0x00003717: mov rbp, qword [rsp+0x38] ; mov rsi, qword [rsp+0x40] ; add rsp, 0x20 ; pop rdi ; ret  ;  (1 found)
0x00004800: mov rbp, qword [rsp+0x38] ; mov rsi, qword [rsp+0x40] ; add rsp, 0x20 ; pop rdi ; ret  ;  (1 found)
0x000056a0: mov rbp, qword [rsp+0x38] ; mov rsi, qword [rsp+0x40] ; add rsp, 0x20 ; pop rdi ; ret  ;  (1 found)
0x000045d1: mov rbp, qword [rsp+0x40] ; mov rsi, qword [rsp+0x48] ; add rsp, 0x20 ; pop rdi ; ret  ;  (1 found)
0x0000350a: mov rbp, qword [rsp+0x48] ; mov rsi, qword [rsp+0x50] ; add rsp, 0x30 ; pop rdi ; ret  ;  (1 found)
0x0000350b: mov rbp, qword [rsp+0x48] ; mov rsi, qword [rsp+0x50] ; add rsp, 0x30 ; pop rdi ; ret  ;  (1 found)
0x00004900: mov rbp, qword [rsp+0x48] ; mov rsi, qword [rsp+0x50] ; add rsp, 0x30 ; pop rdi ; ret  ;  (1 found)
0x00004901: mov rbp, qword [rsp+0x48] ; mov rsi, qword [rsp+0x50] ; add rsp, 0x30 ; pop rdi ; ret  ;  (1 found)
0x00007e81: mov rbx, qword [r11+0x10] ; mov rsi, qword [r11+0x18] ; mov rsp, r11 ; pop rdi ; ret  ;  (1 found)
0x000051d6: mov rbx, qword [rsp+0x30] ; add rsp, 0x20 ; pop r12 ; ret  ;  (1 found)
0x0000525b: mov rbx, qword [rsp+0x30] ; add rsp, 0x20 ; pop r12 ; ret  ;  (1 found)
0x000052e1: mov rbx, qword [rsp+0x30] ; add rsp, 0x20 ; pop r12 ; ret  ;  (1 found)
0x00001a00: mov rbx, qword [rsp+0x30] ; add rsp, 0x20 ; pop rdi ; ret  ;  (1 found)
0x00001a3a: mov rbx, qword [rsp+0x30] ; add rsp, 0x20 ; pop rdi ; ret  ;  (1 found)
0x00001aec: mov rbx, qword [rsp+0x30] ; add rsp, 0x20 ; pop rdi ; ret  ;  (1 found)
0x00003c3e: mov rbx, qword [rsp+0x30] ; add rsp, 0x20 ; pop rdi ; ret  ;  (1 found)
0x00003cc5: mov rbx, qword [rsp+0x30] ; add rsp, 0x20 ; pop rdi ; ret  ;  (1 found)
0x00004041: mov rbx, qword [rsp+0x30] ; add rsp, 0x20 ; pop rdi ; ret  ;  (1 found)
0x00004079: mov rbx, qword [rsp+0x30] ; add rsp, 0x20 ; pop rdi ; ret  ;  (1 found)
0x000040af: mov rbx, qword [rsp+0x30] ; add rsp, 0x20 ; pop rdi ; ret  ;  (1 found)
0x0000544a: mov rbx, qword [rsp+0x30] ; add rsp, 0x20 ; pop rdi ; ret  ;  (1 found)
0x00006cce: mov rbx, qword [rsp+0x30] ; add rsp, 0x20 ; pop rdi ; ret  ;  (1 found)
0x0000788f: mov rbx, qword [rsp+0x30] ; add rsp, 0x20 ; pop rdi ; ret  ;  (1 found)
0x000079df: mov rbx, qword [rsp+0x30] ; add rsp, 0x20 ; pop rdi ; ret  ;  (1 found)
0x00008a55: mov rbx, qword [rsp+0x30] ; add rsp, 0x20 ; pop rdi ; ret  ;  (1 found)
0x00008672: mov rbx, qword [rsp+0x30] ; mov rbp, qword [rsp+0x38] ; add rsp, 0x20 ; pop rdi ; ret  ;  (1 found)
0x0000269c: mov rbx, qword [rsp+0x30] ; mov rdi, qword [rsp+0x38] ; add rsp, 0x20 ; pop r12 ; ret  ;  (1 found)
0x000077ee: mov rbx, qword [rsp+0x30] ; mov rsi, qword [rsp+0x38] ; add rsp, 0x20 ; pop rdi ; ret  ;  (1 found)
0x0000792a: mov rbx, qword [rsp+0x30] ; mov rsi, qword [rsp+0x38] ; add rsp, 0x20 ; pop rdi ; ret  ;  (1 found)
0x00003e1c: mov rbx, qword [rsp+0x38] ; add rsp, 0x20 ; pop rdi ; ret  ;  (1 found)
0x0000594f: mov rbx, qword [rsp+0x38] ; add rsp, 0x20 ; pop rdi ; ret  ;  (1 found)
0x00007a47: mov rbx, qword [rsp+0x38] ; add rsp, 0x20 ; pop rdi ; ret  ;  (1 found)
0x000050d0: mov rbx, qword [rsp+0x40] ; add rsp, 0x20 ; pop rdi ; ret  ;  (1 found)
0x000053ca: mov rbx, qword [rsp+0x40] ; mov rsi, qword [rsp+0x48] ; add rsp, 0x30 ; pop rdi ; ret  ;  (1 found)
0x0000205c: mov rbx, qword [rsp+0x48] ; add rsp, 0x30 ; pop rdi ; ret  ;  (1 found)
0x00004bf6: mov rbx, qword [rsp+0x50] ; mov rsi, qword [rsp+0x58] ; add rsp, 0x30 ; pop rdi ; ret  ;  (1 found)
0x00007723: mov rbx, qword [rsp+0x50] ; mov rsi, qword [rsp+0x58] ; add rsp, 0x40 ; pop rdi ; ret  ;  (1 found)
0x0000805e: mov rbx, qword [rsp+0x70] ; mov rsi, qword [rsp+0x78] ; add rsp, 0x60 ; pop rdi ; ret  ;  (1 found)
0x0000621b: mov rcx, qword [rsp+0x30] ; and dword [rcx+0x000000C8], 0xFFFFFFFD ; add rsp, 0x40 ; pop rbx ; ret  ;  (1 found)
0x00006265: mov rcx, qword [rsp+0x30] ; and dword [rcx+0x000000C8], 0xFFFFFFFD ; add rsp, 0x40 ; pop rbx ; ret  ;  (1 found)
0x0000698d: mov rcx, rax ; call r12 ;  (1 found)
0x00002f1e: mov rcx, rbx ; call rax ;  (1 found)
0x00002f3e: mov rcx, rbx ; call rax ;  (1 found)
0x00003b47: mov rcx, rbx ; call rax ;  (1 found)
0x000069dc: mov rcx, rbx ; call rax ;  (1 found)
0x000069ff: mov rcx, rbx ; call rax ;  (1 found)
0x00005897: mov rdi, qword [r11+0x28] ; mov rsp, r11 ; pop rbp ; ret  ;  (1 found)
0x000026a1: mov rdi, qword [rsp+0x38] ; add rsp, 0x20 ; pop r12 ; ret  ;  (1 found)
0x00003685: mov rdi, qword [rsp+0x40] ; add rsp, 0x20 ; pop r12 ; ret  ;  (1 found)
0x0000381a: mov rdi, qword [rsp+0x40] ; add rsp, 0x20 ; pop r13 ; ret  ;  (1 found)
0x0000878c: mov rdi, qword [rsp+0x40] ; mov r12, qword [rsp+0x48] ; add rsp, 0x20 ; pop r14 ; ret  ;  (1 found)
0x000028c2: mov rdi, qword [rsp+0x48] ; add rsp, 0x20 ; pop r12 ; ret  ;  (1 found)
0x000028c3: mov rdi, qword [rsp+0x48] ; add rsp, 0x20 ; pop r12 ; ret  ;  (1 found)
0x00005e30: mov rdi, qword [rsp+0x50] ; mov r12, qword [rsp+0x58] ; add rsp, 0x30 ; pop r13 ; ret  ;  (1 found)
0x00005e31: mov rdi, qword [rsp+0x50] ; mov r12, qword [rsp+0x58] ; add rsp, 0x30 ; pop r13 ; ret  ;  (1 found)
0x00004cf0: mov rdi, qword [rsp+0x68] ; add rsp, 0x40 ; pop r12 ; ret  ;  (1 found)
0x0000886f: mov rdi, qword [rsp+0x70] ; mov r12, qword [rsp+0x78] ; add rsp, 0x50 ; pop rbp ; ret  ;  (1 found)
0x00002257: mov rdx, r13 ; add rax, r15 ; call rax ;  (1 found)
0x000069fc: mov rdx, r13 ; mov rcx, rbx ; call rax ;  (1 found)
0x00002ef3: mov rdx, rbx ; mov dword [rsp+0x20], r15d ; call rax ;  (1 found)
0x00007e85: mov rsi, qword [r11+0x18] ; mov rsp, r11 ; pop rdi ; ret  ;  (1 found)
0x00005893: mov rsi, qword [r11+0x20] ; mov rdi, qword [r11+0x28] ; mov rsp, r11 ; pop rbp ; ret  ;  (1 found)
0x000077f3: mov rsi, qword [rsp+0x38] ; add rsp, 0x20 ; pop rdi ; ret  ;  (1 found)
0x0000792f: mov rsi, qword [rsp+0x38] ; add rsp, 0x20 ; pop rdi ; ret  ;  (1 found)
0x00003680: mov rsi, qword [rsp+0x38] ; mov rdi, qword [rsp+0x40] ; add rsp, 0x20 ; pop r12 ; ret  ;  (1 found)
0x00003815: mov rsi, qword [rsp+0x38] ; mov rdi, qword [rsp+0x40] ; add rsp, 0x20 ; pop r13 ; ret  ;  (1 found)
0x0000281a: mov rsi, qword [rsp+0x40] ; add rsp, 0x20 ; pop rdi ; ret  ;  (1 found)
0x0000371c: mov rsi, qword [rsp+0x40] ; add rsp, 0x20 ; pop rdi ; ret  ;  (1 found)
0x00004805: mov rsi, qword [rsp+0x40] ; add rsp, 0x20 ; pop rdi ; ret  ;  (1 found)
0x000056a5: mov rsi, qword [rsp+0x40] ; add rsp, 0x20 ; pop rdi ; ret  ;  (1 found)
0x000028be: mov rsi, qword [rsp+0x40] ; mov rdi, qword [rsp+0x48] ; add rsp, 0x20 ; pop r12 ; ret  ;  (1 found)
0x000045d5: mov rsi, qword [rsp+0x48] ; add rsp, 0x20 ; pop rdi ; ret  ;  (1 found)
0x000045d6: mov rsi, qword [rsp+0x48] ; add rsp, 0x20 ; pop rdi ; ret  ;  (1 found)
0x000053ce: mov rsi, qword [rsp+0x48] ; add rsp, 0x30 ; pop rdi ; ret  ;  (1 found)
0x000053cf: mov rsi, qword [rsp+0x48] ; add rsp, 0x30 ; pop rdi ; ret  ;  (1 found)
0x0000350f: mov rsi, qword [rsp+0x50] ; add rsp, 0x30 ; pop rdi ; ret  ;  (1 found)
0x00003510: mov rsi, qword [rsp+0x50] ; add rsp, 0x30 ; pop rdi ; ret  ;  (1 found)
0x00004905: mov rsi, qword [rsp+0x50] ; add rsp, 0x30 ; pop rdi ; ret  ;  (1 found)
0x00004906: mov rsi, qword [rsp+0x50] ; add rsp, 0x30 ; pop rdi ; ret  ;  (1 found)
0x00004bfb: mov rsi, qword [rsp+0x58] ; add rsp, 0x30 ; pop rdi ; ret  ;  (1 found)
0x00007728: mov rsi, qword [rsp+0x58] ; add rsp, 0x40 ; pop rdi ; ret  ;  (1 found)
0x00004ceb: mov rsi, qword [rsp+0x60] ; mov rdi, qword [rsp+0x68] ; add rsp, 0x40 ; pop r12 ; ret  ;  (1 found)
0x00008063: mov rsi, qword [rsp+0x78] ; add rsp, 0x60 ; pop rdi ; ret  ;  (1 found)
0x0000347f: mov rsp, r11 ; pop r12 ; pop rdi ; pop rbp ; ret  ;  (1 found)
0x00004404: mov rsp, r11 ; pop r13 ; pop r12 ; pop rdi ; ret  ;  (1 found)
0x00004fc4: mov rsp, r11 ; pop r14 ; pop r13 ; pop r12 ; ret  ;  (1 found)
0x0000589b: mov rsp, r11 ; pop rbp ; ret  ;  (1 found)
0x00007e89: mov rsp, r11 ; pop rdi ; ret  ;  (1 found)
0x0000dcad: mov word [rax], es ; add al, ch ; ret  ;  (1 found)
0x0000277c: movdqu  [rcx], xmm0 ; mov rax, rbx ; add rsp, 0x20 ; pop rbx ; ret  ;  (1 found)
0x0000277d: movq qword [rcx], mm0 ; mov rax, rbx ; add rsp, 0x20 ; pop rbx ; ret  ;  (1 found)
0x000023cc: movsb  ; add byte [rax], al ; ret  ;  (1 found)
0x000087a6: movsxd eax, dword [rax] ; add byte [rax-0x75], cl ; retn 0xE283 ;  (1 found)
0x000087a7: movsxd eax, dword [rax] ; add byte [rax-0x75], cl ; retn 0xE283 ;  (1 found)
0x0000143d: movsxd ecx, dword [rax-0x01] ; retn 0xFF49 ;  (1 found)
0x00008817: movzx eax, word [rsp+0x40] ; add rsp, 0x38 ; ret  ;  (1 found)
0x0000400a: neg eax ; dec eax ; add rsp, 0x28 ; ret  ;  (1 found)
0x0000dcc5: nop  ; add byte [rax], al ; clc  ; ret  ;  (1 found)
0x00008d8f: nop  ; add rsp, 0x20 ; pop rbp ; ret  ;  (1 found)
0x00008db3: nop  ; add rsp, 0x20 ; pop rbp ; ret  ;  (1 found)
0x00008dd1: nop  ; add rsp, 0x20 ; pop rbp ; ret  ;  (1 found)
0x00008def: nop  ; add rsp, 0x20 ; pop rbp ; ret  ;  (1 found)
0x00008e0d: nop  ; add rsp, 0x20 ; pop rbp ; ret  ;  (1 found)
0x00008e28: nop  ; add rsp, 0x20 ; pop rbp ; ret  ;  (1 found)
0x00008e48: nop  ; add rsp, 0x20 ; pop rbp ; ret  ;  (1 found)
0x00008e5e: nop  ; add rsp, 0x20 ; pop rbp ; ret  ;  (1 found)
0x00008ea5: nop  ; add rsp, 0x20 ; pop rbp ; ret  ;  (1 found)
0x00008ecd: nop  ; add rsp, 0x20 ; pop rbp ; ret  ;  (1 found)
0x00008ef0: nop  ; add rsp, 0x20 ; pop rbp ; ret  ;  (1 found)
0x00008f0b: nop  ; add rsp, 0x20 ; pop rbp ; ret  ;  (1 found)
0x00008f26: nop  ; add rsp, 0x20 ; pop rbp ; ret  ;  (1 found)
0x00008f3f: nop  ; add rsp, 0x20 ; pop rbp ; ret  ;  (1 found)
0x00008f59: nop  ; add rsp, 0x20 ; pop rbp ; ret  ;  (1 found)
0x00008f72: nop  ; add rsp, 0x20 ; pop rbp ; ret  ;  (1 found)
0x00008f8d: nop  ; add rsp, 0x20 ; pop rbp ; ret  ;  (1 found)
0x0000514e: nop  ; ret  ;  (1 found)
0x0000514f: nop  ; ret  ;  (1 found)
0x0000db9c: nop  ; retn 0x0000 ;  (1 found)
0x00005158: nop dword [rax+rax+0x00000000] ; ret  ;  (1 found)
0x00005157: nop word [rax+rax+0x00000000] ; ret  ;  (1 found)
0x000012b9: or al, 0x48 ; xor eax, eax ; ret  ;  (1 found)
0x0000157d: or al, 0x49 ; mov eax, ebx ; ret  ;  (1 found)
0x0000171b: or al, 0x49 ; mov eax, ebx ; ret  ;  (1 found)
0x0000231f: or al, 0xFF ; retn 0x8348 ;  (1 found)
0x00008b88: or al, byte [rax] ; add byte [rax-0x77], cl ; add eax, 0x00004EDE ; add rsp, 0x48 ; ret  ;  (1 found)
0x000018f3: or al, byte [rsi+rsi*8-0x72B7468B] ; add edi, r15d ; ret  ;  (1 found)
0x00007ee7: or bh, bh ; retn 0x15FF ;  (1 found)
0x0000411a: or byte [r11], al ; retn 0x3B4C ;  (1 found)
0x00001e58: or byte [rax+0x0F], cl ; ret  ;  (1 found)
0x00002f4c: or byte [rax-0x01], cl ; ret  ;  (1 found)
0x0000160a: or byte [rax-0x01], cl ; retn 0x77E9 ;  (1 found)
0x00002f1d: or byte [rax-0x75], 0xFFFFFFCB ; call rax ;  (1 found)
0x00002f3d: or byte [rax-0x75], 0xFFFFFFCB ; call rax ;  (1 found)
0x000047d4: or byte [rax], al ; add byte [rax], al ; call r8 ;  (1 found)
0x00007648: or byte [rax], al ; mov qword [rbx], rax ; add rsp, 0x20 ; pop rbx ; ret  ;  (1 found)
0x00005943: or byte [rbp+0x74E8204B], cl ; ret  ;  (1 found)
0x000061d3: or byte [rbp-0x1B17DFB5], cl ; mov edx, 0x8B48FFFF ; ret  ;  (1 found)
0x0000411b: or byte [rbx], al ; retn 0x3B4C ;  (1 found)
0x00002f47: or byte [rcx+0x0F], al ; mov edx, 0xFF4808ED ; ret  ;  (1 found)
0x00008c30: or byte [rcx+0x33], cl ; retn 0x8549 ;  (1 found)
0x00006517: or byte [rcx-0x75], cl ; ret  ;  (1 found)
0x0000439c: or byte [rsi+0x39], ah ; xor esi, dword [rcx+rdx-0x01] ; retn 0xFF49 ;  (1 found)
0x00001573: or cl, byte [rax-0x01] ; retn 0xC2F6 ;  (1 found)
0x000066c5: or cl, byte [rcx-0x01] ; enter 0x0188, 0x75 ; mov rax, r11 ; ret  ;  (1 found)
0x00004191: or dh, byte [rsi+rcx-0x01] ; ror byte [rax-0x7D], 0xFFFFFFC2 ; adc byte [rbx-0x0E8DE908], al ; xor eax, eax ; ret  ;  (1 found)
0x00008c16: or dword [rax+0x3B], ecx ; retn 0xBF75 ;  (1 found)
0x0000128f: or dword [rax+0x3B], ecx ; retn 0xC575 ;  (1 found)
0x00008be0: or dword [rdx], edi ; retn 0x5675 ;  (1 found)
0x00003b16: or eax, 0x0000A7F5 ; ret  ;  (1 found)
0x00003b1e: or eax, 0x0000A7F5 ; ret  ;  (1 found)
0x00003b26: or eax, 0x0000A7F5 ; ret  ;  (1 found)
0x000038b2: or eax, 0x0000AA31 ; mov qword [0x000000000000E2F0], rcx ; mov qword [0x000000000000E2F8], rcx ; mov qword [0x000000000000E300], rcx ; ret  ;  (1 found)
0x000038b9: or eax, 0x0000AA32 ; mov qword [0x000000000000E2F8], rcx ; mov qword [0x000000000000E300], rcx ; ret  ;  (1 found)
0x000038c0: or eax, 0x0000AA33 ; mov qword [0x000000000000E300], rcx ; ret  ;  (1 found)
0x000038c7: or eax, 0x0000AA34 ; ret  ;  (1 found)
0x00003336: or eax, 0x0000AD6D ; ret  ;  (1 found)
0x000016d3: or eax, 0x0000C3C8 ; sete al ; ret  ;  (1 found)
0x00003aba: or eax, 0x00B0968B ; add byte [rax], al ; mov ecx, edi ; call r13 ;  (1 found)
0x00008e1f: or eax, 0xE8000000 ; add byte [rcx+0x4890FFFF], ch ; add esp, 0x20 ; pop rbp ; ret  ;  (1 found)
0x00008f02: or eax, 0xE8000000 ; sbb eax, 0x90FFFFA8 ; add rsp, 0x20 ; pop rbp ; ret  ;  (1 found)
0x000067ee: or eax, 0xFFFFFFFF ; add rsp, 0x28 ; ret  ;  (1 found)
0x00006c3c: or eax, 0xFFFFFFFF ; add rsp, 0x28 ; ret  ;  (1 found)
0x000086f0: or eax, 0xFFFFFFFF ; add rsp, 0x28 ; ret  ;  (1 found)
0x00004399: or eax, dword [rcx-0x78] ; or byte [rsi+0x39], ah ; xor esi, dword [rcx+rdx-0x01] ; retn 0xFF49 ;  (1 found)
0x000040e2: or eax, dword [rdx] ; add byte [rax], al ; cmp word [rcx+0x18], dx ; sete al ; rep ret  ;  (1 found)
0x000016ce: or ecx, 0x01 ; cmp qword [0x000000000000DAA0], rcx ; sete al ; ret  ;  (1 found)
0x000067ed: or rax, 0xFFFFFFFFFFFFFFFF ; add rsp, 0x28 ; ret  ;  (1 found)
0x000086ef: or rax, 0xFFFFFFFFFFFFFFFF ; add rsp, 0x28 ; ret  ;  (1 found)
0x000016cd: or rcx, 0x01 ; cmp qword [0x000000000000DAA0], rcx ; sete al ; ret  ;  (1 found)
0x00001719: out 0xEB, al ; or al, 0x49 ; mov eax, ebx ; ret  ;  (1 found)
0x0000dca0: out dx, al ; mov eax, dword [rax] ; add al, al ; ret  ;  (1 found)
0x0000dcac: outsb  ; mov word [rax], es ; add al, ch ; ret  ;  (1 found)
0x00008dcd: outsd  ; mov eax, 0x4890FFFF ; add esp, 0x20 ; pop rbp ; ret  ;  (1 found)
0x00007df2: pop r12 ; pop rbp ; ret  ;  (1 found)
0x00007fea: pop r12 ; pop rbp ; ret  ;  (1 found)
0x00003482: pop r12 ; pop rdi ; pop rbp ; ret  ;  (1 found)
0x0000312e: pop r12 ; pop rdi ; pop rsi ; pop rbp ; ret  ;  (1 found)
0x00005c5b: pop r12 ; pop rdi ; pop rsi ; pop rbp ; ret  ;  (1 found)
0x0000751a: pop r12 ; pop rdi ; pop rsi ; pop rbp ; ret  ;  (1 found)
0x00006dba: pop r12 ; pop rdi ; pop rsi ; ret  ;  (1 found)
0x000075fa: pop r12 ; pop rdi ; pop rsi ; ret  ;  (1 found)
0x00007b26: pop r12 ; pop rdi ; pop rsi ; ret  ;  (1 found)
0x00008b1e: pop r12 ; pop rdi ; pop rsi ; ret  ;  (1 found)
0x00001c83: pop r12 ; pop rdi ; ret  ;  (1 found)
0x000023c1: pop r12 ; pop rdi ; ret  ;  (1 found)
0x00003b0e: pop r12 ; pop rdi ; ret  ;  (1 found)
0x00004409: pop r12 ; pop rdi ; ret  ;  (1 found)
0x000026aa: pop r12 ; ret  ;  (1 found)
0x000028cc: pop r12 ; ret  ;  (1 found)
0x0000368e: pop r12 ; ret  ;  (1 found)
0x00003ff7: pop r12 ; ret  ;  (1 found)
0x00004b0c: pop r12 ; ret  ;  (1 found)
0x00004cf8: pop r12 ; ret  ;  (1 found)
0x00004cf9: pop r12 ; ret  ;  (1 found)
0x00004fcb: pop r12 ; ret  ;  (1 found)
0x000051df: pop r12 ; ret  ;  (1 found)
0x00005264: pop r12 ; ret  ;  (1 found)
0x000052ea: pop r12 ; ret  ;  (1 found)
0x0000558d: pop r12 ; ret  ;  (1 found)
0x00007df0: pop r13 ; pop r12 ; pop rbp ; ret  ;  (1 found)
0x00007fe8: pop r13 ; pop r12 ; pop rbp ; ret  ;  (1 found)
0x00006db8: pop r13 ; pop r12 ; pop rdi ; pop rsi ; ret  ;  (1 found)
0x000075f8: pop r13 ; pop r12 ; pop rdi ; pop rsi ; ret  ;  (1 found)
0x00001c81: pop r13 ; pop r12 ; pop rdi ; ret  ;  (1 found)
0x000023bf: pop r13 ; pop r12 ; pop rdi ; ret  ;  (1 found)
0x00003b0c: pop r13 ; pop r12 ; pop rdi ; ret  ;  (1 found)
0x00004407: pop r13 ; pop r12 ; pop rdi ; ret  ;  (1 found)
0x00003ff5: pop r13 ; pop r12 ; ret  ;  (1 found)
0x00004b0a: pop r13 ; pop r12 ; ret  ;  (1 found)
0x00004fc9: pop r13 ; pop r12 ; ret  ;  (1 found)
0x0000558b: pop r13 ; pop r12 ; ret  ;  (1 found)
0x00003823: pop r13 ; ret  ;  (1 found)
0x00005e3f: pop r13 ; ret  ;  (1 found)
0x00007dee: pop r14 ; pop r13 ; pop r12 ; pop rbp ; ret  ;  (1 found)
0x00007fe6: pop r14 ; pop r13 ; pop r12 ; pop rbp ; ret  ;  (1 found)
0x00001c7f: pop r14 ; pop r13 ; pop r12 ; pop rdi ; ret  ;  (1 found)
0x000023bd: pop r14 ; pop r13 ; pop r12 ; pop rdi ; ret  ;  (1 found)
0x00003b0a: pop r14 ; pop r13 ; pop r12 ; pop rdi ; ret  ;  (1 found)
0x00003ff3: pop r14 ; pop r13 ; pop r12 ; ret  ;  (1 found)
0x00004b08: pop r14 ; pop r13 ; pop r12 ; ret  ;  (1 found)
0x00004fc7: pop r14 ; pop r13 ; pop r12 ; ret  ;  (1 found)
0x0000879a: pop r14 ; ret  ;  (1 found)
0x00005589: pop r15 ; pop r13 ; pop r12 ; ret  ;  (1 found)
0x00005eec: pop rax ; add dword [rax], eax ; add al, dh ; inc dword [rax+0x00000160] ; ret  ;  (1 found)
0x00005e3a: pop rax ; add rsp, 0x30 ; pop r13 ; ret  ;  (1 found)
0x00004bff: pop rax ; add rsp, 0x30 ; pop rdi ; ret  ;  (1 found)
0x0000772c: pop rax ; add rsp, 0x40 ; pop rdi ; ret  ;  (1 found)
0x0000054b: pop rax ; ret  ;  (1 found)
0x00007df1: pop rbp ; pop r12 ; pop rbp ; ret  ;  (1 found)
0x00007fe9: pop rbp ; pop r12 ; pop rbp ; ret  ;  (1 found)
0x00006db9: pop rbp ; pop r12 ; pop rdi ; pop rsi ; ret  ;  (1 found)
0x000075f9: pop rbp ; pop r12 ; pop rdi ; pop rsi ; ret  ;  (1 found)
0x00001c82: pop rbp ; pop r12 ; pop rdi ; ret  ;  (1 found)
0x000023c0: pop rbp ; pop r12 ; pop rdi ; ret  ;  (1 found)
0x00003b0d: pop rbp ; pop r12 ; pop rdi ; ret  ;  (1 found)
0x00004408: pop rbp ; pop r12 ; pop rdi ; ret  ;  (1 found)
0x00003ff6: pop rbp ; pop r12 ; ret  ;  (1 found)
0x00004b0b: pop rbp ; pop r12 ; ret  ;  (1 found)
0x00004fca: pop rbp ; pop r12 ; ret  ;  (1 found)
0x0000558c: pop rbp ; pop r12 ; ret  ;  (1 found)
0x00006a21: pop rbp ; pop rbx ; ret  ;  (1 found)
0x00001d86: pop rbp ; ret  ;  (1 found)
0x00003132: pop rbp ; ret  ;  (1 found)
0x00003485: pop rbp ; ret  ;  (1 found)
0x00003824: pop rbp ; ret  ;  (1 found)
0x0000589e: pop rbp ; ret  ;  (1 found)
0x00005c5f: pop rbp ; ret  ;  (1 found)
0x00005e40: pop rbp ; ret  ;  (1 found)
0x00006346: pop rbp ; ret  ;  (1 found)
0x0000751e: pop rbp ; ret  ;  (1 found)
0x00007df4: pop rbp ; ret  ;  (1 found)
0x00007fec: pop rbp ; ret  ;  (1 found)
0x0000887d: pop rbp ; ret  ;  (1 found)
0x00008d94: pop rbp ; ret  ;  (1 found)
0x00008db8: pop rbp ; ret  ;  (1 found)
0x00008dd6: pop rbp ; ret  ;  (1 found)
0x00008df4: pop rbp ; ret  ;  (1 found)
0x00008e12: pop rbp ; ret  ;  (1 found)
0x00008e2d: pop rbp ; ret  ;  (1 found)
0x00008e4d: pop rbp ; ret  ;  (1 found)
0x00008e63: pop rbp ; ret  ;  (1 found)
0x00008e8f: pop rbp ; ret  ;  (1 found)
0x00008eaa: pop rbp ; ret  ;  (1 found)
0x00008ed2: pop rbp ; ret  ;  (1 found)
0x00008ef5: pop rbp ; ret  ;  (1 found)
0x00008f10: pop rbp ; ret  ;  (1 found)
0x00008f2b: pop rbp ; ret  ;  (1 found)
0x00008f44: pop rbp ; ret  ;  (1 found)
0x00008f5e: pop rbp ; ret  ;  (1 found)
0x00008f77: pop rbp ; ret  ;  (1 found)
0x00008f92: pop rbp ; ret  ;  (1 found)
0x00001d85: pop rbx ; pop rbp ; ret  ;  (1 found)
0x000016c1: pop rbx ; ret  ;  (1 found)
0x0000195f: pop rbx ; ret  ;  (1 found)
0x000024ae: pop rbx ; ret  ;  (1 found)
0x00002529: pop rbx ; ret  ;  (1 found)
0x0000255b: pop rbx ; ret  ;  (1 found)
0x000026e5: pop rbx ; ret  ;  (1 found)
0x00002787: pop rbx ; ret  ;  (1 found)
0x000027d0: pop rbx ; ret  ;  (1 found)
0x00003618: pop rbx ; ret  ;  (1 found)
0x00003b5d: pop rbx ; ret  ;  (1 found)
0x00003cf2: pop rbx ; ret  ;  (1 found)
0x00003ea7: pop rbx ; ret  ;  (1 found)
0x00003eed: pop rbx ; ret  ;  (1 found)
0x0000532b: pop rbx ; ret  ;  (1 found)
0x000054a2: pop rbx ; ret  ;  (1 found)
0x000059e9: pop rbx ; ret  ;  (1 found)
0x000059ea: pop rbx ; ret  ;  (1 found)
0x0000616d: pop rbx ; ret  ;  (1 found)
0x000061e3: pop rbx ; ret  ;  (1 found)
0x0000622a: pop rbx ; ret  ;  (1 found)
0x0000622b: pop rbx ; ret  ;  (1 found)
0x00006274: pop rbx ; ret  ;  (1 found)
0x00006275: pop rbx ; ret  ;  (1 found)
0x00006a22: pop rbx ; ret  ;  (1 found)
0x00006a5a: pop rbx ; ret  ;  (1 found)
0x00006afd: pop rbx ; ret  ;  (1 found)
0x00006bce: pop rbx ; ret  ;  (1 found)
0x00007651: pop rbx ; ret  ;  (1 found)
0x00007683: pop rbx ; ret  ;  (1 found)
0x0000845c: pop rbx ; ret  ;  (1 found)
0x000084ca: pop rbx ; ret  ;  (1 found)
0x000085d4: pop rbx ; ret  ;  (1 found)
0x00008b59: pop rbx ; ret  ;  (1 found)
0x0000da91: pop rdi ; add byte [rax], al ; clc  ; ret  ;  (1 found)
0x0000558a: pop rdi ; pop r13 ; pop r12 ; ret  ;  (1 found)
0x00003484: pop rdi ; pop rbp ; ret  ;  (1 found)
0x00001d84: pop rdi ; pop rbx ; pop rbp ; ret  ;  (1 found)
0x000016c0: pop rdi ; pop rbx ; ret  ;  (1 found)
0x00006a1f: pop rdi ; pop rsi ; pop rbp ; pop rbx ; ret  ;  (1 found)
0x00003130: pop rdi ; pop rsi ; pop rbp ; ret  ;  (1 found)
0x00005c5d: pop rdi ; pop rsi ; pop rbp ; ret  ;  (1 found)
0x00006344: pop rdi ; pop rsi ; pop rbp ; ret  ;  (1 found)
0x0000751c: pop rdi ; pop rsi ; pop rbp ; ret  ;  (1 found)
0x00006dbc: pop rdi ; pop rsi ; ret  ;  (1 found)
0x000075fc: pop rdi ; pop rsi ; ret  ;  (1 found)
0x00007b28: pop rdi ; pop rsi ; ret  ;  (1 found)
0x00008b20: pop rdi ; pop rsi ; ret  ;  (1 found)
0x00001a09: pop rdi ; ret  ;  (1 found)
0x00001a43: pop rdi ; ret  ;  (1 found)
0x00001af5: pop rdi ; ret  ;  (1 found)
0x00001c85: pop rdi ; ret  ;  (1 found)
0x00002065: pop rdi ; ret  ;  (1 found)
0x000023c3: pop rdi ; ret  ;  (1 found)
0x00002823: pop rdi ; ret  ;  (1 found)
0x00003519: pop rdi ; ret  ;  (1 found)
0x00003725: pop rdi ; ret  ;  (1 found)
0x00003b10: pop rdi ; ret  ;  (1 found)
0x00003c47: pop rdi ; ret  ;  (1 found)
0x00003cce: pop rdi ; ret  ;  (1 found)
0x00003e25: pop rdi ; ret  ;  (1 found)
0x0000404a: pop rdi ; ret  ;  (1 found)
0x00004082: pop rdi ; ret  ;  (1 found)
0x000040b8: pop rdi ; ret  ;  (1 found)
0x0000440b: pop rdi ; ret  ;  (1 found)
0x000045df: pop rdi ; ret  ;  (1 found)
0x0000480e: pop rdi ; ret  ;  (1 found)
0x0000490f: pop rdi ; ret  ;  (1 found)
0x00004c04: pop rdi ; ret  ;  (1 found)
0x000050d9: pop rdi ; ret  ;  (1 found)
0x000053d8: pop rdi ; ret  ;  (1 found)
0x00005453: pop rdi ; ret  ;  (1 found)
0x000056ae: pop rdi ; ret  ;  (1 found)
0x00005958: pop rdi ; ret  ;  (1 found)
0x00006cd7: pop rdi ; ret  ;  (1 found)
0x00007730: pop rdi ; ret  ;  (1 found)
0x00007731: pop rdi ; ret  ;  (1 found)
0x000077fc: pop rdi ; ret  ;  (1 found)
0x00007898: pop rdi ; ret  ;  (1 found)
0x00007938: pop rdi ; ret  ;  (1 found)
0x000079e8: pop rdi ; ret  ;  (1 found)
0x00007a50: pop rdi ; ret  ;  (1 found)
0x00007e8c: pop rdi ; ret  ;  (1 found)
0x0000806c: pop rdi ; ret  ;  (1 found)
0x00008680: pop rdi ; ret  ;  (1 found)
0x00008a5e: pop rdi ; ret  ;  (1 found)
0x0000da8c: pop rsi ; add byte [rax], al ; sub eax, 0xF800005F ; ret  ;  (1 found)
0x0000da8d: pop rsi ; add byte [rax], al ; sub eax, 0xF800005F ; ret  ;  (1 found)
0x00007def: pop rsi ; pop r13 ; pop r12 ; pop rbp ; ret  ;  (1 found)
0x00007fe7: pop rsi ; pop r13 ; pop r12 ; pop rbp ; ret  ;  (1 found)
0x00001c80: pop rsi ; pop r13 ; pop r12 ; pop rdi ; ret  ;  (1 found)
0x000023be: pop rsi ; pop r13 ; pop r12 ; pop rdi ; ret  ;  (1 found)
0x00003b0b: pop rsi ; pop r13 ; pop r12 ; pop rdi ; ret  ;  (1 found)
0x00003ff4: pop rsi ; pop r13 ; pop r12 ; ret  ;  (1 found)
0x00004b09: pop rsi ; pop r13 ; pop r12 ; ret  ;  (1 found)
0x00004fc8: pop rsi ; pop r13 ; pop r12 ; ret  ;  (1 found)
0x00006a20: pop rsi ; pop rbp ; pop rbx ; ret  ;  (1 found)
0x00003131: pop rsi ; pop rbp ; ret  ;  (1 found)
0x00005c5e: pop rsi ; pop rbp ; ret  ;  (1 found)
0x00006345: pop rsi ; pop rbp ; ret  ;  (1 found)
0x0000751d: pop rsi ; pop rbp ; ret  ;  (1 found)
0x00006dbd: pop rsi ; ret  ;  (1 found)
0x000075fd: pop rsi ; ret  ;  (1 found)
0x00007b29: pop rsi ; ret  ;  (1 found)
0x0000879b: pop rsi ; ret  ;  (1 found)
0x00008b21: pop rsi ; ret  ;  (1 found)
0x0000389e: pop rsp ; add byte [rax], al ; mov qword [0x000000000000E2E0], rax ; add rsp, 0x28 ; ret  ;  (1 found)
0x00001ee6: pop rsp ; and al, 0x08 ; add rsp, 0x10 ; ret  ;  (1 found)
0x000051d8: pop rsp ; and al, 0x30 ; add rsp, 0x20 ; pop r12 ; ret  ;  (1 found)
0x0000525d: pop rsp ; and al, 0x30 ; add rsp, 0x20 ; pop r12 ; ret  ;  (1 found)
0x000052e3: pop rsp ; and al, 0x30 ; add rsp, 0x20 ; pop r12 ; ret  ;  (1 found)
0x00001a02: pop rsp ; and al, 0x30 ; add rsp, 0x20 ; pop rdi ; ret  ;  (1 found)
0x00001a3c: pop rsp ; and al, 0x30 ; add rsp, 0x20 ; pop rdi ; ret  ;  (1 found)
0x00001aee: pop rsp ; and al, 0x30 ; add rsp, 0x20 ; pop rdi ; ret  ;  (1 found)
0x00003c40: pop rsp ; and al, 0x30 ; add rsp, 0x20 ; pop rdi ; ret  ;  (1 found)
0x00003cc7: pop rsp ; and al, 0x30 ; add rsp, 0x20 ; pop rdi ; ret  ;  (1 found)
0x00004043: pop rsp ; and al, 0x30 ; add rsp, 0x20 ; pop rdi ; ret  ;  (1 found)
0x0000407b: pop rsp ; and al, 0x30 ; add rsp, 0x20 ; pop rdi ; ret  ;  (1 found)
0x000040b1: pop rsp ; and al, 0x30 ; add rsp, 0x20 ; pop rdi ; ret  ;  (1 found)
0x0000544c: pop rsp ; and al, 0x30 ; add rsp, 0x20 ; pop rdi ; ret  ;  (1 found)
0x00006cd0: pop rsp ; and al, 0x30 ; add rsp, 0x20 ; pop rdi ; ret  ;  (1 found)
0x00007891: pop rsp ; and al, 0x30 ; add rsp, 0x20 ; pop rdi ; ret  ;  (1 found)
0x000079e1: pop rsp ; and al, 0x30 ; add rsp, 0x20 ; pop rdi ; ret  ;  (1 found)
0x00008a57: pop rsp ; and al, 0x30 ; add rsp, 0x20 ; pop rdi ; ret  ;  (1 found)
0x00003e1e: pop rsp ; and al, 0x38 ; add rsp, 0x20 ; pop rdi ; ret  ;  (1 found)
0x00005951: pop rsp ; and al, 0x38 ; add rsp, 0x20 ; pop rdi ; ret  ;  (1 found)
0x00007a49: pop rsp ; and al, 0x38 ; add rsp, 0x20 ; pop rdi ; ret  ;  (1 found)
0x000050d2: pop rsp ; and al, 0x40 ; add rsp, 0x20 ; pop rdi ; ret  ;  (1 found)
0x0000205e: pop rsp ; and al, 0x48 ; add rsp, 0x30 ; pop rdi ; ret  ;  (1 found)
0x00007df3: pop rsp ; pop rbp ; ret  ;  (1 found)
0x00007feb: pop rsp ; pop rbp ; ret  ;  (1 found)
0x00003483: pop rsp ; pop rdi ; pop rbp ; ret  ;  (1 found)
0x0000312f: pop rsp ; pop rdi ; pop rsi ; pop rbp ; ret  ;  (1 found)
0x00005c5c: pop rsp ; pop rdi ; pop rsi ; pop rbp ; ret  ;  (1 found)
0x0000751b: pop rsp ; pop rdi ; pop rsi ; pop rbp ; ret  ;  (1 found)
0x00006dbb: pop rsp ; pop rdi ; pop rsi ; ret  ;  (1 found)
0x000075fb: pop rsp ; pop rdi ; pop rsi ; ret  ;  (1 found)
0x00007b27: pop rsp ; pop rdi ; pop rsi ; ret  ;  (1 found)
0x00008b1f: pop rsp ; pop rdi ; pop rsi ; ret  ;  (1 found)
0x00001c84: pop rsp ; pop rdi ; ret  ;  (1 found)
0x000023c2: pop rsp ; pop rdi ; ret  ;  (1 found)
0x00003b0f: pop rsp ; pop rdi ; ret  ;  (1 found)
0x0000440a: pop rsp ; pop rdi ; ret  ;  (1 found)
0x000026ab: pop rsp ; ret  ;  (1 found)
0x000028cd: pop rsp ; ret  ;  (1 found)
0x0000368f: pop rsp ; ret  ;  (1 found)
0x00003ff8: pop rsp ; ret  ;  (1 found)
0x00004b0d: pop rsp ; ret  ;  (1 found)
0x00004cfa: pop rsp ; ret  ;  (1 found)
0x00004fcc: pop rsp ; ret  ;  (1 found)
0x000051e0: pop rsp ; ret  ;  (1 found)
0x00005265: pop rsp ; ret  ;  (1 found)
0x000052eb: pop rsp ; ret  ;  (1 found)
0x0000558e: pop rsp ; ret  ;  (1 found)
0x0000db2d: push 0x00000000 ; add byte [rax-0x63FFFF42], cl ; imul eax, dword [rax], 0x00 ; adc eax, 0x5000006D ; retn 0x0000 ;  (1 found)
0x0000db20: push 0x00000000 ; add byte [rax], ah ; retn 0x0000 ;  (1 found)
0x0000db21: push 0x00000000 ; add byte [rax], ah ; retn 0x0000 ;  (1 found)
0x00004cf4: push 0x40C48348 ; pop r12 ; ret  ;  (1 found)
0x00001221: push qword [rbp+0x02] ; rep ret  ;  (1 found)
0x0000149b: push qword [rdx] ; ror byte [rax-0x74B6EEFC], 0xFFFFFFC3 ; ret  ;  (1 found)
0x00003514: push rax ; add rsp, 0x30 ; pop rdi ; ret  ;  (1 found)
0x0000490a: push rax ; add rsp, 0x30 ; pop rdi ; ret  ;  (1 found)
0x0000d680: push rax ; mov ebp, 0x19F00000 ; add byte [rax], al ; ret  ;  (1 found)
0x00005e35: push rax ; mov r12, qword [rsp+0x58] ; add rsp, 0x30 ; pop r13 ; ret  ;  (1 found)
0x00004bfa: push rax ; mov rsi, qword [rsp+0x58] ; add rsp, 0x30 ; pop rdi ; ret  ;  (1 found)
0x00007727: push rax ; mov rsi, qword [rsp+0x58] ; add rsp, 0x40 ; pop rdi ; ret  ;  (1 found)
0x0000887c: push rax ; pop rbp ; ret  ;  (1 found)
0x00001d83: push rax ; pop rdi ; pop rbx ; pop rbp ; ret  ;  (1 found)
0x00000b65: push rax ; ret  ;  (1 found)
0x0000daac: push rax ; retn 0x0000 ;  (1 found)
0x0000db3c: push rax ; retn 0x0000 ;  (1 found)
0x0000dc44: push rax ; retn 0x0000 ;  (1 found)
0x0000dc5c: push rax ; retn 0x0000 ;  (1 found)
0x00002f1c: push rbp ; or byte [rax-0x75], 0xFFFFFFCB ; call rax ;  (1 found)
0x00002f3c: push rbp ; or byte [rax-0x75], 0xFFFFFFCB ; call rax ;  (1 found)
0x00001e5c: push rcx ; adc byte [rax-0x7D], cl ; rol dword [rax+0x48], 0x0F ; ret  ;  (1 found)
0x0000698b: push rcx ; cmc  ; mov rcx, rax ; call r12 ;  (1 found)
0x00001e65: push rcx ; fmul dword [rax+0x0F] ; ret  ;  (1 found)
0x00001e57: push rcx ; or byte [rax+0x0F], cl ; ret  ;  (1 found)
0x00003501: push rsp ; and al, 0x20 ; call rax ;  (1 found)
0x000034fc: push rsp ; and al, 0x60 ; mov qword [rsp+0x20], r10 ; call rax ;  (1 found)
0x0000db34: pushfq  ; imul eax, dword [rax], 0x00 ; adc eax, 0x5000006D ; retn 0x0000 ;  (1 found)
0x00002f30: pushfq  ; mov al, byte [0x0000651615FF0000] ; lea rdx, qword [rbp-0x80] ; mov rcx, rbx ; call rax ;  (1 found)
0x0000d6ec: pushfq  ; mov ebp, 0x22180000 ; add byte [rax], al ; ret  ;  (1 found)
0x000035ad: rcl byte [rax], 0x00000048 ; add esp, 0x28 ; ret  ;  (1 found)
0x0000121b: rcl dword [rax], 0x66 ; test ecx, 0x0275FFFF ; rep ret  ;  (1 found)
0x00008d50: rcr dword [rbx], 0xFFFFFFC0 ; sbb eax, 0xFFFFFFFF ; ret  ;  (1 found)
0x00001224: rep ret  ;  (1 found)
0x000040ed: rep ret  ;  (1 found)
0x0000040b: ret  ;  (1 found)
0x00000482: ret  ;  (1 found)
0x000004a6: ret  ;  (1 found)
0x00000ec2: ret  ;  (1 found)
0x00001176: ret  ;  (1 found)
0x000011a9: ret  ;  (1 found)
0x000011f8: ret  ;  (1 found)
0x00001225: ret  ;  (1 found)
0x000012b5: ret  ;  (1 found)
0x000012bd: ret  ;  (1 found)
0x000012c5: ret  ;  (1 found)
0x000012f4: ret  ;  (1 found)
0x000013cd: ret  ;  (1 found)
0x000013ce: ret  ;  (1 found)
0x000014a3: ret  ;  (1 found)
0x000014a4: ret  ;  (1 found)
0x00001580: ret  ;  (1 found)
0x00001581: ret  ;  (1 found)
0x00001615: ret  ;  (1 found)
0x00001616: ret  ;  (1 found)
0x000016c2: ret  ;  (1 found)
0x000016d5: ret  ;  (1 found)
0x000016db: ret  ;  (1 found)
0x0000171e: ret  ;  (1 found)
0x0000171f: ret  ;  (1 found)
0x000017ee: ret  ;  (1 found)
0x000017ef: ret  ;  (1 found)
0x00001850: ret  ;  (1 found)
0x00001851: ret  ;  (1 found)
0x0000186a: ret  ;  (1 found)
0x0000186d: ret  ;  (1 found)
0x000018fd: ret  ;  (1 found)
0x00001903: ret  ;  (1 found)
0x00001909: ret  ;  (1 found)
0x0000190f: ret  ;  (1 found)
0x00001915: ret  ;  (1 found)
0x0000191b: ret  ;  (1 found)
0x00001921: ret  ;  (1 found)
0x00001927: ret  ;  (1 found)
0x00001960: ret  ;  (1 found)
0x000019f9: ret  ;  (1 found)
0x00001a0a: ret  ;  (1 found)
0x00001a33: ret  ;  (1 found)
0x00001a44: ret  ;  (1 found)
0x00001aba: ret  ;  (1 found)
0x00001af6: ret  ;  (1 found)
0x00001c61: ret  ;  (1 found)
0x00001c86: ret  ;  (1 found)
0x00001d7f: ret  ;  (1 found)
0x00001d87: ret  ;  (1 found)
0x00001e0b: ret  ;  (1 found)
0x00001e52: ret  ;  (1 found)
0x00001e56: ret  ;  (1 found)
0x00001e5b: ret  ;  (1 found)
0x00001e64: ret  ;  (1 found)
0x00001e69: ret  ;  (1 found)
0x00001e71: ret  ;  (1 found)
0x00001e76: ret  ;  (1 found)
0x00001e7b: ret  ;  (1 found)
0x00001eed: ret  ;  (1 found)
0x00001f43: ret  ;  (1 found)
0x00002066: ret  ;  (1 found)
0x000021c5: ret  ;  (1 found)
0x000022e1: ret  ;  (1 found)
0x0000234f: ret  ;  (1 found)
0x0000239c: ret  ;  (1 found)
0x000023c4: ret  ;  (1 found)
0x000023cf: ret  ;  (1 found)
0x000023ed: ret  ;  (1 found)
0x000023ef: ret  ;  (1 found)
0x000023f0: ret  ;  (1 found)
0x0000241d: ret  ;  (1 found)
0x00002439: ret  ;  (1 found)
0x000024af: ret  ;  (1 found)
0x0000252a: ret  ;  (1 found)
0x0000255c: ret  ;  (1 found)
0x000026ac: ret  ;  (1 found)
0x000026e6: ret  ;  (1 found)
0x00002782: ret  ;  (1 found)
0x00002788: ret  ;  (1 found)
0x000027d1: ret  ;  (1 found)
0x00002824: ret  ;  (1 found)
0x00002874: ret  ;  (1 found)
0x00002893: ret  ;  (1 found)
0x000028ce: ret  ;  (1 found)
0x00002bf7: ret  ;  (1 found)
0x00002e47: ret  ;  (1 found)
0x00002e4a: ret  ;  (1 found)
0x00002f4f: ret  ;  (1 found)
0x000030e7: ret  ;  (1 found)
0x00003133: ret  ;  (1 found)
0x0000333b: ret  ;  (1 found)
0x00003486: ret  ;  (1 found)
0x0000351a: ret  ;  (1 found)
0x00003549: ret  ;  (1 found)
0x00003577: ret  ;  (1 found)
0x0000358a: ret  ;  (1 found)
0x00003592: ret  ;  (1 found)
0x000035b3: ret  ;  (1 found)
0x000035d3: ret  ;  (1 found)
0x00003619: ret  ;  (1 found)
0x0000366c: ret  ;  (1 found)
0x00003690: ret  ;  (1 found)
0x00003693: ret  ;  (1 found)
0x000036e7: ret  ;  (1 found)
0x0000054c: ret  ;  (1 found)
0x000005a0: ret  ;  (1 found)
0x00000625: ret  ;  (1 found)
0x000006bf: ret  ;  (1 found)
0x00000860: ret  ;  (1 found)
0x00000974: ret  ;  (1 found)
0x00000ab2: ret  ;  (1 found)
0x00000b27: ret  ;  (1 found)
0x00000b28: ret  ;  (1 found)
0x00000b66: ret  ;  (1 found)
0x00000d0d: ret  ;  (1 found)
0x00000ddc: ret  ;  (1 found)
0x0000370b: ret  ;  (1 found)
0x00003726: ret  ;  (1 found)
0x0000379d: ret  ;  (1 found)
0x00003825: ret  ;  (1 found)
0x0000388e: ret  ;  (1 found)
0x000038ac: ret  ;  (1 found)
0x000038cc: ret  ;  (1 found)
0x00003b11: ret  ;  (1 found)
0x00003b1b: ret  ;  (1 found)
0x00003b23: ret  ;  (1 found)
0x00003b2b: ret  ;  (1 found)
0x00003b5e: ret  ;  (1 found)
0x00003c48: ret  ;  (1 found)
0x00003cc4: ret  ;  (1 found)
0x00003ccf: ret  ;  (1 found)
0x00003ced: ret  ;  (1 found)
0x00003cf3: ret  ;  (1 found)
0x00003e26: ret  ;  (1 found)
0x00003ea8: ret  ;  (1 found)
0x00003eee: ret  ;  (1 found)
0x00003fdf: ret  ;  (1 found)
0x00003ff9: ret  ;  (1 found)
0x00004012: ret  ;  (1 found)
0x0000403a: ret  ;  (1 found)
0x0000404b: ret  ;  (1 found)
0x00004072: ret  ;  (1 found)
0x00004083: ret  ;  (1 found)
0x000040a8: ret  ;  (1 found)
0x000040b9: ret  ;  (1 found)
0x000040cf: ret  ;  (1 found)
0x000040ee: ret  ;  (1 found)
0x00004131: ret  ;  (1 found)
0x00004135: ret  ;  (1 found)
0x00004180: ret  ;  (1 found)
0x000041a1: ret  ;  (1 found)
0x000041ac: ret  ;  (1 found)
0x00004311: ret  ;  (1 found)
0x000043a9: ret  ;  (1 found)
0x0000440c: ret  ;  (1 found)
0x00004452: ret  ;  (1 found)
0x000045e0: ret  ;  (1 found)
0x00004624: ret  ;  (1 found)
0x0000463f: ret  ;  (1 found)
0x0000480f: ret  ;  (1 found)
0x000048b6: ret  ;  (1 found)
0x00004910: ret  ;  (1 found)
0x00004999: ret  ;  (1 found)
0x000049b3: ret  ;  (1 found)
0x000049d1: ret  ;  (1 found)
0x00004a0c: ret  ;  (1 found)
0x00004a33: ret  ;  (1 found)
0x00004aa5: ret  ;  (1 found)
0x00004abe: ret  ;  (1 found)
0x00004ac9: ret  ;  (1 found)
0x00004b0e: ret  ;  (1 found)
0x00004c05: ret  ;  (1 found)
0x00004c41: ret  ;  (1 found)
0x00004c4b: ret  ;  (1 found)
0x00004cfb: ret  ;  (1 found)
0x00004f90: ret  ;  (1 found)
0x00004fcd: ret  ;  (1 found)
0x00005025: ret  ;  (1 found)
0x000050da: ret  ;  (1 found)
0x000050e3: ret  ;  (1 found)
0x00005123: ret  ;  (1 found)
0x00005150: ret  ;  (1 found)
0x00005160: ret  ;  (1 found)
0x000051d5: ret  ;  (1 found)
0x000051e1: ret  ;  (1 found)
0x0000525a: ret  ;  (1 found)
0x00005266: ret  ;  (1 found)
0x000052e0: ret  ;  (1 found)
0x000052ec: ret  ;  (1 found)
0x0000532c: ret  ;  (1 found)
0x000053bb: ret  ;  (1 found)
0x000053d9: ret  ;  (1 found)
0x00005454: ret  ;  (1 found)
0x000054a3: ret  ;  (1 found)
0x0000555d: ret  ;  (1 found)
0x0000558f: ret  ;  (1 found)
0x000055fa: ret  ;  (1 found)
0x00005621: ret  ;  (1 found)
0x0000565f: ret  ;  (1 found)
0x0000567c: ret  ;  (1 found)
0x000056af: ret  ;  (1 found)
0x0000570c: ret  ;  (1 found)
0x000057a2: ret  ;  (1 found)
0x00005830: ret  ;  (1 found)
0x0000589f: ret  ;  (1 found)
0x00005949: ret  ;  (1 found)
0x0000594e: ret  ;  (1 found)
0x00005959: ret  ;  (1 found)
0x000059e5: ret  ;  (1 found)
0x000059eb: ret  ;  (1 found)
0x00005b1a: ret  ;  (1 found)
0x00005b49: ret  ;  (1 found)
0x00005c49: ret  ;  (1 found)
0x00005c60: ret  ;  (1 found)
0x00005e41: ret  ;  (1 found)
0x00005e6b: ret  ;  (1 found)
0x00005ef7: ret  ;  (1 found)
0x00005f9b: ret  ;  (1 found)
0x00006164: ret  ;  (1 found)
0x0000616e: ret  ;  (1 found)
0x000061de: ret  ;  (1 found)
0x000061e4: ret  ;  (1 found)
0x0000622c: ret  ;  (1 found)
0x00006276: ret  ;  (1 found)
0x000062d1: ret  ;  (1 found)
0x00006347: ret  ;  (1 found)
0x0000644f: ret  ;  (1 found)
0x0000651a: ret  ;  (1 found)
0x0000651b: ret  ;  (1 found)
0x0000652f: ret  ;  (1 found)
0x00006530: ret  ;  (1 found)
0x000065cb: ret  ;  (1 found)
0x000065cf: ret  ;  (1 found)
0x000065de: ret  ;  (1 found)
0x000065e3: ret  ;  (1 found)
0x000065f6: ret  ;  (1 found)
0x000065fb: ret  ;  (1 found)
0x0000660c: ret  ;  (1 found)
0x00006611: ret  ;  (1 found)
0x000066bb: ret  ;  (1 found)
0x000066bc: ret  ;  (1 found)
0x000066cf: ret  ;  (1 found)
0x000066d0: ret  ;  (1 found)
0x0000676c: ret  ;  (1 found)
0x00006771: ret  ;  (1 found)
0x00006780: ret  ;  (1 found)
0x00006785: ret  ;  (1 found)
0x00006798: ret  ;  (1 found)
0x0000679d: ret  ;  (1 found)
0x000067ad: ret  ;  (1 found)
0x000067b2: ret  ;  (1 found)
0x000067f5: ret  ;  (1 found)
0x000068f1: ret  ;  (1 found)
0x00006a23: ret  ;  (1 found)
0x00006a55: ret  ;  (1 found)
0x00006a5b: ret  ;  (1 found)
0x00006af8: ret  ;  (1 found)
0x00006afe: ret  ;  (1 found)
0x00006b35: ret  ;  (1 found)
0x00006b94: ret  ;  (1 found)
0x00006bc9: ret  ;  (1 found)
0x00006bcf: ret  ;  (1 found)
0x00006c43: ret  ;  (1 found)
0x00006cad: ret  ;  (1 found)
0x00006cd8: ret  ;  (1 found)
0x00006d8e: ret  ;  (1 found)
0x00006dbe: ret  ;  (1 found)
0x00006ede: ret  ;  (1 found)
0x00006f6f: ret  ;  (1 found)
0x00006f9b: ret  ;  (1 found)
0x00006fe6: ret  ;  (1 found)
0x000070c2: ret  ;  (1 found)
0x0000711c: ret  ;  (1 found)
0x000072bc: ret  ;  (1 found)
0x0000751f: ret  ;  (1 found)
0x000075cf: ret  ;  (1 found)
0x000075fe: ret  ;  (1 found)
0x00007652: ret  ;  (1 found)
0x0000767e: ret  ;  (1 found)
0x00007684: ret  ;  (1 found)
0x00007732: ret  ;  (1 found)
0x000077b8: ret  ;  (1 found)
0x000077cd: ret  ;  (1 found)
0x000077dd: ret  ;  (1 found)
0x000077de: ret  ;  (1 found)
0x000077fd: ret  ;  (1 found)
0x00007899: ret  ;  (1 found)
0x00007939: ret  ;  (1 found)
0x000079e9: ret  ;  (1 found)
0x00007a51: ret  ;  (1 found)
0x00007b07: ret  ;  (1 found)
0x00007b2a: ret  ;  (1 found)
0x00007b86: ret  ;  (1 found)
0x00007b8d: ret  ;  (1 found)
0x00007d44: ret  ;  (1 found)
0x00007d7f: ret  ;  (1 found)
0x00007df5: ret  ;  (1 found)
0x00007e65: ret  ;  (1 found)
0x00007e8d: ret  ;  (1 found)
0x00007f63: ret  ;  (1 found)
0x00007fed: ret  ;  (1 found)
0x0000806d: ret  ;  (1 found)
0x0000845d: ret  ;  (1 found)
0x000084cb: ret  ;  (1 found)
0x000085d5: ret  ;  (1 found)
0x00008681: ret  ;  (1 found)
0x000086f7: ret  ;  (1 found)
0x0000879c: ret  ;  (1 found)
0x00008820: ret  ;  (1 found)
0x0000887e: ret  ;  (1 found)
0x000089f6: ret  ;  (1 found)
0x00008a5f: ret  ;  (1 found)
0x00008b22: ret  ;  (1 found)
0x00008b5a: ret  ;  (1 found)
0x00008b95: ret  ;  (1 found)
0x00008b96: ret  ;  (1 found)
0x00008bb9: ret  ;  (1 found)
0x00008c36: ret  ;  (1 found)
0x00008c42: ret  ;  (1 found)
0x00008c45: ret  ;  (1 found)
0x00008c77: ret  ;  (1 found)
0x00008c7f: ret  ;  (1 found)
0x00008cd2: ret  ;  (1 found)
0x00008cd8: ret  ;  (1 found)
0x00008d56: ret  ;  (1 found)
0x00008d95: ret  ;  (1 found)
0x00008db9: ret  ;  (1 found)
0x00008dd7: ret  ;  (1 found)
0x00008df5: ret  ;  (1 found)
0x00008e13: ret  ;  (1 found)
0x00008e2e: ret  ;  (1 found)
0x00008e4e: ret  ;  (1 found)
0x00008e64: ret  ;  (1 found)
0x00008e90: ret  ;  (1 found)
0x00008eab: ret  ;  (1 found)
0x00008ed3: ret  ;  (1 found)
0x00008ef6: ret  ;  (1 found)
0x00008f11: ret  ;  (1 found)
0x00008f2c: ret  ;  (1 found)
0x00008f45: ret  ;  (1 found)
0x00008f5f: ret  ;  (1 found)
0x00008f78: ret  ;  (1 found)
0x00008f93: ret  ;  (1 found)
0x0000a963: ret  ;  (1 found)
0x0000aa63: ret  ;  (1 found)
0x0000aae3: ret  ;  (1 found)
0x0000abe3: ret  ;  (1 found)
0x0000aef2: ret  ;  (1 found)
0x0000af40: ret  ;  (1 found)
0x0000d688: ret  ;  (1 found)
0x0000d6f4: ret  ;  (1 found)
0x0000da95: ret  ;  (1 found)
0x0000dc15: ret  ;  (1 found)
0x0000dc39: ret  ;  (1 found)
0x0000dc75: ret  ;  (1 found)
0x0000dc81: ret  ;  (1 found)
0x0000dc8d: ret  ;  (1 found)
0x0000dc99: ret  ;  (1 found)
0x0000dca5: ret  ;  (1 found)
0x0000dcb1: ret  ;  (1 found)
0x0000dcc9: ret  ;  (1 found)
0x0000daad: retn 0x0000 ;  (1 found)
0x0000db19: retn 0x0000 ;  (1 found)
0x0000db25: retn 0x0000 ;  (1 found)
0x0000db3d: retn 0x0000 ;  (1 found)
0x0000db55: retn 0x0000 ;  (1 found)
0x0000db79: retn 0x0000 ;  (1 found)
0x0000db9d: retn 0x0000 ;  (1 found)
0x0000dbb5: retn 0x0000 ;  (1 found)
0x0000dbfd: retn 0x0000 ;  (1 found)
0x0000dc09: retn 0x0000 ;  (1 found)
0x0000dc45: retn 0x0000 ;  (1 found)
0x0000dc5d: retn 0x0000 ;  (1 found)
0x000042b6: retn 0x0028 ;  (1 found)
0x00008562: retn 0x0054 ;  (1 found)
0x000034a2: retn 0x005F ;  (1 found)
0x000068e2: retn 0x0081 ;  (1 found)
0x000051aa: retn 0x0098 ;  (1 found)
0x000090f0: retn 0x00C9 ;  (1 found)
0x0000b5d0: retn 0x00C9 ;  (1 found)
0x00001a72: retn 0x00E2 ;  (1 found)
0x0000232d: retn 0x0348 ;  (1 found)
0x00001864: retn 0x0475 ;  (1 found)
0x00004576: retn 0x07EB ;  (1 found)
0x00001857: retn 0x0D74 ;  (1 found)
0x00003f66: retn 0x0F48 ;  (1 found)
0x00007bc5: retn 0x15FF ;  (1 found)
0x00007ee9: retn 0x15FF ;  (1 found)
0x00005729: retn 0x1677 ;  (1 found)
0x00001cb9: retn 0x39E9 ;  (1 found)
0x000039ab: retn 0x3B48 ;  (1 found)
0x000039ba: retn 0x3B48 ;  (1 found)
0x0000411d: retn 0x3B4C ;  (1 found)
0x00007376: retn 0x4802 ;  (1 found)
0x000013d6: retn 0x4808 ;  (1 found)
0x00001588: retn 0x4808 ;  (1 found)
0x00001726: retn 0x4808 ;  (1 found)
0x00004d61: retn 0x4809 ;  (1 found)
0x00002443: retn 0x4830 ;  (1 found)
0x00004d8d: retn 0x4858 ;  (1 found)
0x00004e3a: retn 0x4858 ;  (1 found)
0x000024a1: retn 0x4930 ;  (1 found)
0x000046fb: retn 0x4C10 ;  (1 found)
0x00000bdd: retn 0x4C8B ;  (1 found)
0x00003a91: retn 0x5489 ;  (1 found)
0x00008be2: retn 0x5675 ;  (1 found)
0x00001264: retn 0x5775 ;  (1 found)
0x00002a7f: retn 0x6348 ;  (1 found)
0x00006b19: retn 0x6602 ;  (1 found)
0x0000737a: retn 0x6602 ;  (1 found)
0x0000247c: retn 0x6B48 ;  (1 found)
0x00006cbf: retn 0x6B48 ;  (1 found)
0x000013aa: retn 0x7407 ;  (1 found)
0x00001567: retn 0x7407 ;  (1 found)
0x000016fc: retn 0x7407 ;  (1 found)
0x000013c0: retn 0x7507 ;  (1 found)
0x00001578: retn 0x7507 ;  (1 found)
0x00001716: retn 0x7507 ;  (1 found)
0x0000160d: retn 0x77E9 ;  (1 found)
0x00004198: retn 0x8310 ;  (1 found)
0x00002321: retn 0x8348 ;  (1 found)
0x00006b04: retn 0x8349 ;  (1 found)
0x000047c5: retn 0x8389 ;  (1 found)
0x000047c6: retn 0x8389 ;  (1 found)
0x000012b2: retn 0x8549 ;  (1 found)
0x00008c33: retn 0x8549 ;  (1 found)
0x00002a2a: retn 0x8944 ;  (1 found)
0x000029bb: retn 0x8D4C ;  (1 found)
0x000055d9: retn 0xBE0F ;  (1 found)
0x00008c19: retn 0xBF75 ;  (1 found)
0x00006bfe: retn 0xC033 ;  (1 found)
0x000015c6: retn 0xC148 ;  (1 found)
0x000015de: retn 0xC148 ;  (1 found)
0x00001576: retn 0xC2F6 ;  (1 found)
0x0000a962: retn 0xC4C3 ;  (1 found)
0x0000aa62: retn 0xC4C3 ;  (1 found)
0x0000aae2: retn 0xC4C3 ;  (1 found)
0x0000abe2: retn 0xC4C3 ;  (1 found)
0x00001292: retn 0xC575 ;  (1 found)
0x00007b89: retn 0xC8FF ;  (1 found)
0x000073b5: retn 0xD233 ;  (1 found)
0x00005da4: retn 0xE1EB ;  (1 found)
0x000029d8: retn 0xE283 ;  (1 found)
0x000086ba: retn 0xE283 ;  (1 found)
0x000087ac: retn 0xE283 ;  (1 found)
0x00005d83: retn 0xE2EB ;  (1 found)
0x000015bc: retn 0xE484 ;  (1 found)
0x000015d4: retn 0xE484 ;  (1 found)
0x000015ec: retn 0xE484 ;  (1 found)
0x00001603: retn 0xE484 ;  (1 found)
0x000015f6: retn 0xE8C1 ;  (1 found)
0x00002b63: retn 0xF8D1 ;  (1 found)
0x00005870: retn 0xFF48 ;  (1 found)
0x000013b9: retn 0xFF49 ;  (1 found)
0x0000141e: retn 0xFF49 ;  (1 found)
0x0000142d: retn 0xFF49 ;  (1 found)
0x00001440: retn 0xFF49 ;  (1 found)
0x0000144f: retn 0xFF49 ;  (1 found)
0x00001462: retn 0xFF49 ;  (1 found)
0x00001471: retn 0xFF49 ;  (1 found)
0x00001483: retn 0xFF49 ;  (1 found)
0x00001492: retn 0xFF49 ;  (1 found)
0x0000170f: retn 0xFF49 ;  (1 found)
0x0000176e: retn 0xFF49 ;  (1 found)
0x0000177d: retn 0xFF49 ;  (1 found)
0x00001790: retn 0xFF49 ;  (1 found)
0x0000179f: retn 0xFF49 ;  (1 found)
0x000017b2: retn 0xFF49 ;  (1 found)
0x000017c1: retn 0xFF49 ;  (1 found)
0x000017d3: retn 0xFF49 ;  (1 found)
0x000017e2: retn 0xFF49 ;  (1 found)
0x000043a3: retn 0xFF49 ;  (1 found)
0x00004f77: retn 0xFFFD ;  (1 found)
0x00005aa0: retn 0xFFFF ;  (1 found)
0x00005b79: retn 0xFFFF ;  (1 found)
0x00007870: retn 0xFFFF ;  (1 found)
0x00007908: retn 0xFFFF ;  (1 found)
0x0000791a: retn 0xFFFF ;  (1 found)
0x000041a0: rol bl, 0x00000048 ; cwde  ; add rax, rax ; mov rax, qword [r8+rax*8+0x08] ; ret  ;  (1 found)
0x00003588: rol bl, 0x00000048 ; cwde  ; mov eax, dword [r9+rax*8+0x04] ; ret  ;  (1 found)
0x00003589: rol bl, 0x00000048 ; cwde  ; mov eax, dword [r9+rax*8+0x04] ; ret  ;  (1 found)
0x00004130: rol bl, 0x00000048 ; mov eax, ecx ; ret  ;  (1 found)
0x000012bc: rol bl, 0x00000048 ; sbb eax, eax ; sbb rax, 0xFFFFFFFFFFFFFFFF ; ret  ;  (1 found)
0x00008c76: rol bl, 0x00000048 ; sbb eax, eax ; sbb rax, 0xFFFFFFFFFFFFFFFF ; ret  ;  (1 found)
0x00004174: rol byte [rbx+0x02EB01E0], 1  ; xor eax, eax ; add rsp, 0x28 ; ret  ;  (1 found)
0x0000a960: rol cl, 0xFFFFFFC2 ; ret  ;  (1 found)
0x0000aa60: rol cl, 0xFFFFFFC2 ; ret  ;  (1 found)
0x0000aae0: rol cl, 0xFFFFFFC2 ; ret  ;  (1 found)
0x0000abe0: rol cl, 0xFFFFFFC2 ; ret  ;  (1 found)
0x00001e60: rol dword [rax+0x48], 0x0F ; ret  ;  (1 found)
0x000065f2: rol dword [rax+0x4C], 0x0F ; ret  ;  (1 found)
0x0000da89: rol dword [rax], 0x00000000 ; pop rsi ; add byte [rax], al ; sub eax, 0xF800005F ; ret  ;  (1 found)
0x00002ef5: rol dword [rcx+rcx*4+0x7C], cl ; and al, 0x20 ; call rax ;  (1 found)
0x00003579: rol dword [rdi+rdi*8-0x01], 0xFFFFFFFF ; mov eax, 0x00000016 ; cmp ecx, 0x0E ; cmovbe eax, r8d ; ret  ;  (1 found)
0x00008bd7: rol dword [rdi], 0x74 ; sbb ecx, dword [rdx+0x148A4201] ; or dword [rdx], edi ; retn 0x5675 ;  (1 found)
0x00008deb: rol dword [rsi], 0x00000000 ; add byte [rax+0x20C48348], dl ; pop rbp ; ret  ;  (1 found)
0x0000af37: ror al, 1  ; sub eax, 0x00010000 ; add byte [rax], al ; ret  ;  (1 found)
0x000013c7: ror byte [rax-0x74B6EEFC], 0xFFFFFFC3 ; ret  ;  (1 found)
0x0000149d: ror byte [rax-0x74B6EEFC], 0xFFFFFFC3 ; ret  ;  (1 found)
0x00001aeb: ror byte [rax-0x75], 0x0000005C ; and al, 0x30 ; add rsp, 0x20 ; pop rdi ; ret  ;  (1 found)
0x00008a54: ror byte [rax-0x75], 0x0000005C ; and al, 0x30 ; add rsp, 0x20 ; pop rdi ; ret  ;  (1 found)
0x000029d5: ror byte [rax-0x75], 1  ; retn 0xE283 ;  (1 found)
0x00001762: ror byte [rax-0x7BF0EEFC], 0xFFFFFF84 ; add byte [rax], al ; add byte [rax-0x01], cl ; retn 0xFF49 ;  (1 found)
0x00001412: ror byte [rax-0x7BF0EEFC], 0xFFFFFF85 ; add byte [rax], al ; add byte [rax-0x01], cl ; retn 0xFF49 ;  (1 found)
0x00001703: ror byte [rax-0x7BF0EEFC], 0xFFFFFFE3 ; add byte [rax], al ; add byte [rax-0x01], cl ; retn 0xFF49 ;  (1 found)
0x00004195: ror byte [rax-0x7D], 0xFFFFFFC2 ; adc byte [rbx-0x0E8DE908], al ; xor eax, eax ; ret  ;  (1 found)
0x000016cc: ror byte [rax-0x7D], 0xFFFFFFC9 ; add dword [rax+0x39], ecx ; or eax, 0x0000C3C8 ; sete al ; ret  ;  (1 found)
0x00008c3d: ror byte [rax-0x7D], 0xFFFFFFD8 ; inc ebx ; xor eax, eax ; ret  ;  (1 found)
0x000019f6: ror byte [rax-0x7D], 1  ; ret  ;  (1 found)
0x00001ab7: ror byte [rax-0x7D], 1  ; ret  ;  (1 found)
0x00004037: ror byte [rax-0x7D], 1  ; ret  ;  (1 found)
0x0000406f: ror byte [rax-0x7D], 1  ; ret  ;  (1 found)
0x000047bc: ror byte [rbx+0x008EBAC7], 0x00000000 ; add byte [rdi], cl ; retn 0x8389 ;  (1 found)
0x000012af: ror byte [rcx+0x33], cl ; retn 0x8549 ;  (1 found)
0x00004f74: ror byte [rdi], 0xFFFFFF84 ; retn 0xFFFD ;  (1 found)
0x00006b8d: ror dword [rax-0x2F], 0xFFFFFFF8 ; dec rax ; ret  ;  (1 found)
0x00001a30: ror dword [rax-0x7D], 1  ; ret  ;  (1 found)
0x00008e88: ror dword [rbx-0x3B7CB73F], 0x20 ; pop rbp ; ret  ;  (1 found)
0x000011a6: ror dword [rcx+0x63], 1  ; ret  ;  (1 found)
0x00004009: sal bh, 0xFFFFFFD8 ; dec eax ; add rsp, 0x28 ; ret  ;  (1 found)
0x000066b6: sal byte [rbp+0x07], 0x00000049 ; mov eax, ebx ; ret  ;  (1 found)
0x00006515: sal byte [rbp+0x08], 0x00000049 ; mov eax, ebx ; ret  ;  (1 found)
0x00006b88: sal byte [rbp-0x0C], cl ; sub rax, rcx ; sar rax, 1  ; dec rax ; ret  ;  (1 found)
0x00001860: sal byte [rbp-0x0D], 0x0000003A ; retn 0x0475 ;  (1 found)
0x000048b1: sal byte [rbx+rsi*2+0x4C], 0xFFFFFF8B ; ret  ;  (1 found)
0x000034f7: sal byte [rcx+0x4C], 0xFFFFFF8B ; push rsp ; and al, 0x60 ; mov qword [rsp+0x20], r10 ; call rax ;  (1 found)
0x00008814: sal byte [rcx+rbx*8+0x0F], 0xFFFFFFB7 ; and al, 0x40 ; add rsp, 0x38 ; ret  ;  (1 found)
0x00004ab9: sal byte [rdi+rax+0x48], 0xFFFFFFFF ; ret  ;  (1 found)
0x00001571: sal byte [rdx+rcx+0x48], 0xFFFFFFFF ; retn 0xC2F6 ;  (1 found)
0x000018f1: sal byte [rdx+rcx-0x7C], cl ; div byte [rbp-0x47] ; lea rax, qword [rcx+rax-0x01] ; ret  ;  (1 found)
0x0000231d: sal byte [rsi+0x0C], 0xFFFFFFFF ; retn 0x8348 ;  (1 found)
0x00001954: sal byte [rsp+rax-0x75], 0xFFFFFFCB ; call rax ;  (1 found)
0x00008c6e: sal byte [rsp+rax-0x7C], cl ; div byte [rbp-0x75] ; xor eax, eax ; ret  ;  (1 found)
0x000012ea: sal byte [rsp+rax-0x7C], cl ; div byte [rbp-0x78] ; xor rax, rax ; ret  ;  (1 found)
0x000013b4: sal byte [rsp+rdx+0x48], 0xFFFFFFFF ; retn 0xFF49 ;  (1 found)
0x00001edd: sal dword [rbp-0x10], cl ; mov r10, qword [rsp] ; mov r11, qword [rsp+0x08] ; add rsp, 0x10 ; ret  ;  (1 found)
0x00007a46: salc  ; mov rbx, qword [rsp+0x38] ; add rsp, 0x20 ; pop rdi ; ret  ;  (1 found)
0x00005502: sar bh, 1  ; call qword [rax-0x2CFA74B8] ;  (1 found)
0x00005015: sar bh, cl ; adc eax, 0x0000453C ; mov eax, 0x00000001 ; add rsp, 0x28 ; ret  ;  (1 found)
0x00006b8f: sar eax, 1  ; dec rax ; ret  ;  (1 found)
0x00006b8e: sar rax, 1  ; dec rax ; ret  ;  (1 found)
0x0000561b: sbb al, 0x48 ; add esp, 0x28 ; ret  ;  (1 found)
0x0000561c: sbb al, 0x48 ; add esp, 0x28 ; ret  ;  (1 found)
0x00006d89: sbb al, byte [rax] ; add byte [rax-0x75], cl ; ret  ;  (1 found)
0x00006af1: sbb al, ch ; xor eax, 0x8BFFFFCA ; ret  ;  (1 found)
0x00002329: sbb bl, ch ; in eax, 0x8B ; retn 0x0348 ;  (1 found)
0x00002523: sbb byte [rdi], cl ; add rsp, 0x20 ; pop rbx ; ret  ;  (1 found)
0x00002555: sbb byte [rdi], cl ; add rsp, 0x20 ; pop rbx ; ret  ;  (1 found)
0x0000d6f0: sbb byte [rdx], ah ; add byte [rax], al ; ret  ;  (1 found)
0x00005f8b: sbb dword [rax+0x01], 0x44F00000 ; add dword [rax+0x00000160], ecx ; mov rax, rcx ; ret  ;  (1 found)
0x000029d2: sbb dword [rax+0x63], ecx ; ror byte [rax-0x75], 1  ; retn 0xE283 ;  (1 found)
0x0000224f: sbb dword [rbx+0x4C8D4803], ecx ; and al, 0x30 ; mov rdx, r13 ; add rax, r15 ; call rax ;  (1 found)
0x000050cb: sbb eax, 0x00007710 ; mov rbx, qword [rsp+0x40] ; add rsp, 0x20 ; pop rdi ; ret  ;  (1 found)
0x00008f07: sbb eax, 0x90FFFFA8 ; add rsp, 0x20 ; pop rbp ; ret  ;  (1 found)
0x000012c2: sbb eax, 0xFFFFFFFF ; ret  ;  (1 found)
0x00008c3f: sbb eax, 0xFFFFFFFF ; ret  ;  (1 found)
0x00008c7c: sbb eax, 0xFFFFFFFF ; ret  ;  (1 found)
0x00008cd5: sbb eax, 0xFFFFFFFF ; ret  ;  (1 found)
0x00008d53: sbb eax, 0xFFFFFFFF ; ret  ;  (1 found)
0x00004a9c: sbb eax, dword [rbp-0x75F18B40] ; add ecx, dword [rax-0x01] ; ret  ;  (1 found)
0x00004008: sbb eax, eax ; neg eax ; dec eax ; add rsp, 0x28 ; ret  ;  (1 found)
0x00008cd3: sbb eax, eax ; sbb eax, 0xFFFFFFFF ; ret  ;  (1 found)
0x00008d51: sbb eax, eax ; sbb eax, 0xFFFFFFFF ; ret  ;  (1 found)
0x000012bf: sbb eax, eax ; sbb rax, 0xFFFFFFFFFFFFFFFF ; ret  ;  (1 found)
0x00008c3c: sbb eax, eax ; sbb rax, 0xFFFFFFFFFFFFFFFF ; ret  ;  (1 found)
0x00008c79: sbb eax, eax ; sbb rax, 0xFFFFFFFFFFFFFFFF ; ret  ;  (1 found)
0x00008e09: sbb ebp, dword [rcx+0x4890FFFF] ; add esp, 0x20 ; pop rbp ; ret  ;  (1 found)
0x00008bda: sbb ecx, dword [rdx+0x148A4201] ; or dword [rdx], edi ; retn 0x5675 ;  (1 found)
0x000012c1: sbb rax, 0xFFFFFFFFFFFFFFFF ; ret  ;  (1 found)
0x00008c3e: sbb rax, 0xFFFFFFFFFFFFFFFF ; ret  ;  (1 found)
0x00008c7b: sbb rax, 0xFFFFFFFFFFFFFFFF ; ret  ;  (1 found)
0x000012be: sbb rax, rax ; sbb rax, 0xFFFFFFFFFFFFFFFF ; ret  ;  (1 found)
0x00008c3b: sbb rax, rax ; sbb rax, 0xFFFFFFFFFFFFFFFF ; ret  ;  (1 found)
0x00008c78: sbb rax, rax ; sbb rax, 0xFFFFFFFFFFFFFFFF ; ret  ;  (1 found)
0x00007679: scasd  ; mov esi, 0xC38BFFFF ; add rsp, 0x20 ; pop rbx ; ret  ;  (1 found)
0x000040ea: sete al ; rep ret  ;  (1 found)
0x000016d8: sete al ; ret  ;  (1 found)
0x00005499: shr bl, 0x00000002 ; xor eax, eax ; add rsp, 0x20 ; pop rbx ; ret  ;  (1 found)
0x000012b7: shr ebx, 0x0C ; xor rax, rax ; ret  ;  (1 found)
0x0000184b: shr ebx, 0xFFFFFFF3 ; mov rax, r11 ; ret  ;  (1 found)
0x000071d4: stc  ; call qword [rbx] ;  (1 found)
0x00001920: stc  ; ret  ;  (1 found)
0x00006226: std  ; add rsp, 0x40 ; pop rbx ; ret  ;  (1 found)
0x00006270: std  ; add rsp, 0x40 ; pop rbx ; ret  ;  (1 found)
0x000059e3: std  ; mov eax, ebx ; add rsp, 0x40 ; pop rbx ; ret  ;  (1 found)
0x00001908: std  ; ret  ;  (1 found)
0x00005a9f: std  ; retn 0xFFFF ;  (1 found)
0x00001914: sti  ; ret  ;  (1 found)
0x000038a5: stosb  ; add byte [rax], al ; add rsp, 0x28 ; ret  ;  (1 found)
0x000038bb: stosb  ; add byte [rax], al ; mov qword [0x000000000000E2F8], rcx ; mov qword [0x000000000000E300], rcx ; ret  ;  (1 found)
0x000038c2: stosb  ; add byte [rax], al ; mov qword [0x000000000000E300], rcx ; ret  ;  (1 found)
0x000038c9: stosb  ; add byte [rax], al ; ret  ;  (1 found)
0x00003fd9: stosd  ; fcos  ; dec dword [rax-0x75] ; ret  ;  (1 found)
0x00002eee: sub byte [rax-0x73], cl ; mov r8, 0x20247C8944D38B48 ; call rax ;  (1 found)
0x000065ef: sub byte [rax-0x7D], cl ; rol dword [rax+0x4C], 0x0F ; ret  ;  (1 found)
0x000016bf: sub byte [rdi+0x5B], bl ; ret  ;  (1 found)
0x00008e5a: sub cl, byte [rbx+0x4890FFFF] ; add esp, 0x20 ; pop rbp ; ret  ;  (1 found)
0x000015e9: sub dword [rax-0x01], ecx ; retn 0xE484 ;  (1 found)
0x0000af39: sub eax, 0x00010000 ; add byte [rax], al ; ret  ;  (1 found)
0x00002f45: sub eax, 0x0F410875 ; mov edx, 0xFF4808ED ; ret  ;  (1 found)
0x00006447: sub eax, 0x48FFFFFE ; add esp, 0x38 ; ret  ;  (1 found)
0x00008d8b: sub eax, 0x90FFFF98 ; add rsp, 0x20 ; pop rbp ; ret  ;  (1 found)
0x0000da90: sub eax, 0xF800005F ; ret  ;  (1 found)
0x00006b8c: sub eax, ecx ; sar rax, 1  ; dec rax ; ret  ;  (1 found)
0x00007a41: sub ebp, dword [rbx-0x29140001] ; mov rbx, qword [rsp+0x38] ; add rsp, 0x20 ; pop rdi ; ret  ;  (1 found)
0x000053b1: sub ebx, dword [rcx-0x7CB70000] ; and al, 0xF3 ; add bh, bh ; ret  ;  (1 found)
0x00006b8b: sub rax, rcx ; sar rax, 1  ; dec rax ; ret  ;  (1 found)
0x00008e45: test al, 0xFF ; call qword [rax+0x20C48348] ;  (1 found)
0x00008ea2: test al, 0xFF ; call qword [rax+0x20C48348] ;  (1 found)
0x00008eed: test al, 0xFF ; call qword [rax+0x20C48348] ;  (1 found)
0x00008f08: test al, 0xFF ; call qword [rax+0x20C48348] ;  (1 found)
0x00008f23: test al, 0xFF ; call qword [rax+0x20C48348] ;  (1 found)
0x00001708: test bl, ah ; add byte [rax], al ; add byte [rax-0x01], cl ; retn 0xFF49 ;  (1 found)
0x00001767: test byte [rax+rax-0x00B80000], al ; retn 0xFF49 ;  (1 found)
0x0000515a: test byte [rax], al ; add byte [rax], al ; add byte [rax], al ; ret  ;  (1 found)
0x0000dc55: test byte [rax], al ; add byte [rdi-0x7B], ch ; add byte [rax], al ; push rax ; retn 0x0000 ;  (1 found)
0x0000175c: test byte [rbx-0x7C000000], cl ; ror byte [rax-0x7BF0EEFC], 0xFFFFFF84 ; add byte [rax], al ; add byte [rax-0x01], cl ; retn 0xFF49 ;  (1 found)
0x0000140c: test byte [rbx-0x7C000000], cl ; ror byte [rax-0x7BF0EEFC], 0xFFFFFF85 ; add byte [rax], al ; add byte [rax-0x01], cl ; retn 0xFF49 ;  (1 found)
0x0000dc88: test byte [rcx-0x3C780000], 0x00000000 ; add al, bh ; mov dword [rax], eax ; add byte [rsi-0x4FFFFF76], cl ; ret  ;  (1 found)
0x00002e41: test dword [rdi+0x2B000001], edi ; ret  ;  (1 found)
0x00008db0: test eax, 0x4890FFFF ; add esp, 0x20 ; pop rbp ; ret  ;  (1 found)
0x00008e0a: test eax, 0x4890FFFF ; add esp, 0x20 ; pop rbp ; ret  ;  (1 found)
0x00008e25: test eax, 0x4890FFFF ; add esp, 0x20 ; pop rbp ; ret  ;  (1 found)
0x0000121e: test ecx, 0x0275FFFF ; rep ret  ;  (1 found)
0x00001f42: xchg eax, ebp ; ret  ;  (1 found)
0x000047ce: xchg eax, ebx ; mov al, 0x00 ; add byte [rax], al ; mov ecx, 0x00000008 ; call r8 ;  (1 found)
0x00003abc: xchg eax, esi ; mov al, 0x00 ; add byte [rax], al ; mov ecx, edi ; call r13 ;  (1 found)
0x00006edd: xchg eax, esp ; ret  ;  (1 found)
0x0000dbb4: xchg eax, esp ; retn 0x0000 ;  (1 found)
0x0000af31: xor al, 0x06 ; add byte [0xFFFFFFFFC8D0C06B], dl ; sub eax, 0x00010000 ; add byte [rax], al ; ret  ;  (1 found)
0x000038c8: xor al, 0xAA ; add byte [rax], al ; ret  ;  (1 found)
0x000013c6: xor al, al ; mov byte [rcx+rdx], al ; mov rax, r11 ; ret  ;  (1 found)
0x0000149c: xor al, al ; mov byte [rcx+rdx], al ; mov rax, r11 ; ret  ;  (1 found)
0x0000621f: xor byte [rbx+0x0000C8A1], al ; add ch, bh ; add rsp, 0x40 ; pop rbx ; ret  ;  (1 found)
0x00006269: xor byte [rbx+0x0000C8A1], al ; add ch, bh ; add rsp, 0x40 ; pop rbx ; ret  ;  (1 found)
0x0000533e: xor byte [rbx], dh ; dec dword [rbp-0x2017FEB1] ; in al, 0xFF ; call qword [rax-0x76FCA073] ;  (1 found)
0x00005e3e: xor byte [rcx+0x5D], al ; ret  ;  (1 found)
0x00005588: xor byte [rcx+0x5F], al ; pop r13 ; pop r12 ; ret  ;  (1 found)
0x000038ba: xor ch, byte [rdx-0x76B80000] ; or eax, 0x0000AA33 ; mov qword [0x000000000000E300], rcx ; ret  ;  (1 found)
0x0000146e: xor cl, byte [rax-0x01] ; retn 0xFF49 ;  (1 found)
0x00005d7e: xor dh, 0x00000000 ; add bh, bh ; retn 0xE2EB ;  (1 found)
0x0000af35: xor dl, byte [rcx] ; ror al, 1  ; sub eax, 0x00010000 ; add byte [rax], al ; ret  ;  (1 found)
0x000017be: xor dword [rax-0x01], ecx ; retn 0xFF49 ;  (1 found)
0x000047c8: xor dword [rax-0x75000000], 0xFFFFFF93 ; mov al, 0x00 ; add byte [rax], al ; mov ecx, 0x00000008 ; call r8 ;  (1 found)
0x000038b3: xor dword [rdx-0x76B80000], ebp ; or eax, 0x0000AA32 ; mov qword [0x000000000000E2F8], rcx ; mov qword [0x000000000000E300], rcx ; ret  ;  (1 found)
0x00006af3: xor eax, 0x8BFFFFCA ; ret  ;  (1 found)
0x000024a8: xor eax, eax ; add rsp, 0x20 ; pop rbx ; ret  ;  (1 found)
0x00003b57: xor eax, eax ; add rsp, 0x20 ; pop rbx ; ret  ;  (1 found)
0x00003ea1: xor eax, eax ; add rsp, 0x20 ; pop rbx ; ret  ;  (1 found)
0x00003ee7: xor eax, eax ; add rsp, 0x20 ; pop rbx ; ret  ;  (1 found)
0x0000549c: xor eax, eax ; add rsp, 0x20 ; pop rbx ; ret  ;  (1 found)
0x00006167: xor eax, eax ; add rsp, 0x20 ; pop rbx ; ret  ;  (1 found)
0x0000417a: xor eax, eax ; add rsp, 0x28 ; ret  ;  (1 found)
0x0000461e: xor eax, eax ; add rsp, 0x28 ; ret  ;  (1 found)
0x00004639: xor eax, eax ; add rsp, 0x28 ; ret  ;  (1 found)
0x000055f4: xor eax, eax ; add rsp, 0x28 ; ret  ;  (1 found)
0x00005e65: xor eax, eax ; add rsp, 0x28 ; ret  ;  (1 found)
0x00001aea: xor eax, eax ; mov rbx, qword [rsp+0x30] ; add rsp, 0x20 ; pop rdi ; ret  ;  (1 found)
0x00008a53: xor eax, eax ; mov rbx, qword [rsp+0x30] ; add rsp, 0x20 ; pop rdi ; ret  ;  (1 found)
0x000016cb: xor eax, eax ; or rcx, 0x01 ; cmp qword [0x000000000000DAA0], rcx ; sete al ; ret  ;  (1 found)
0x000012bb: xor eax, eax ; ret  ;  (1 found)
0x000012f2: xor eax, eax ; ret  ;  (1 found)
0x0000186b: xor eax, eax ; ret  ;  (1 found)
0x000040cd: xor eax, eax ; ret  ;  (1 found)
0x0000412f: xor eax, eax ; ret  ;  (1 found)
0x0000419f: xor eax, eax ; ret  ;  (1 found)
0x00008c43: xor eax, eax ; ret  ;  (1 found)
0x00008c75: xor eax, eax ; ret  ;  (1 found)
0x00008cd0: xor eax, eax ; ret  ;  (1 found)
0x000038c1: xor ebp, dword [rdx-0x76B80000] ; or eax, 0x0000AA34 ; ret  ;  (1 found)
0x000049b0: xor ecx, dword [rax-0x01] ; ret  ;  (1 found)
0x0000439f: xor esi, dword [rcx+rdx-0x01] ; retn 0xFF49 ;  (1 found)
0x000012ba: xor rax, rax ; ret  ;  (1 found)
0x000012f1: xor rax, rax ; ret  ;  (1 found)
0x00008ccf: xor rax, rax ; ret  ;  (1 found)
0x00005d7d: xor sil, 0x00000000 ; add bh, bh ; retn 0xE2EB ;  (1 found)
